
EliMAC-TEST.elf:     file format elf32-littlearm

Sections:
Idx Name          Size      VMA       LMA       File off  Algn
  0 .isr_vector   000001c8  08000000  08000000  00001000  2**0
                  CONTENTS, ALLOC, LOAD, READONLY, DATA
  1 .text         00004a98  080001d0  080001d0  000011d0  2**4
                  CONTENTS, ALLOC, LOAD, READONLY, CODE
  2 .rodata       000000d4  08004c68  08004c68  00005c68  2**2
                  CONTENTS, ALLOC, LOAD, READONLY, DATA
  3 .ARM.extab    00000000  08004d3c  08004d3c  000061c8  2**0
                  CONTENTS
  4 .ARM          00000008  08004d3c  08004d3c  00005d3c  2**2
                  CONTENTS, ALLOC, LOAD, READONLY, DATA
  5 .preinit_array 00000000  08004d44  08004d44  000061c8  2**0
                  CONTENTS, ALLOC, LOAD, DATA
  6 .init_array   00000004  08004d44  08004d44  00005d44  2**2
                  CONTENTS, ALLOC, LOAD, READONLY, DATA
  7 .fini_array   00000004  08004d48  08004d48  00005d48  2**2
                  CONTENTS, ALLOC, LOAD, READONLY, DATA
  8 .data         00000088  20000000  08004d4c  00006000  2**2
                  CONTENTS, ALLOC, LOAD, DATA
  9 .TxDecripSection 000000a0  20000088  08004dd4  00006088  2**2
                  CONTENTS, ALLOC, LOAD, DATA
 10 .RxDecripSection 000000a0  20000128  08004e74  00006128  2**2
                  CONTENTS, ALLOC, LOAD, DATA
 11 .bss          00001c50  200001c8  08004f14  000061c8  2**2
                  ALLOC
 12 ._user_heap_stack 00000600  20001e18  08004f14  00006e18  2**0
                  ALLOC
 13 .ARM.attributes 00000030  00000000  00000000  000061c8  2**0
                  CONTENTS, READONLY
 14 .comment      00000043  00000000  00000000  000061f8  2**0
                  CONTENTS, READONLY
 15 .debug_frame  00000a48  00000000  00000000  0000623c  2**2
                  CONTENTS, READONLY, DEBUGGING, OCTETS

Disassembly of section .text:

080001d0 <__do_global_dtors_aux>:
 80001d0:	b510      	push	{r4, lr}
 80001d2:	4c05      	ldr	r4, [pc, #20]	@ (80001e8 <__do_global_dtors_aux+0x18>)
 80001d4:	7823      	ldrb	r3, [r4, #0]
 80001d6:	b933      	cbnz	r3, 80001e6 <__do_global_dtors_aux+0x16>
 80001d8:	4b04      	ldr	r3, [pc, #16]	@ (80001ec <__do_global_dtors_aux+0x1c>)
 80001da:	b113      	cbz	r3, 80001e2 <__do_global_dtors_aux+0x12>
 80001dc:	4804      	ldr	r0, [pc, #16]	@ (80001f0 <__do_global_dtors_aux+0x20>)
 80001de:	f3af 8000 	nop.w
 80001e2:	2301      	movs	r3, #1
 80001e4:	7023      	strb	r3, [r4, #0]
 80001e6:	bd10      	pop	{r4, pc}
 80001e8:	200001c8 	.word	0x200001c8
 80001ec:	00000000 	.word	0x00000000
 80001f0:	08004c50 	.word	0x08004c50

080001f4 <frame_dummy>:
 80001f4:	b508      	push	{r3, lr}
 80001f6:	4b03      	ldr	r3, [pc, #12]	@ (8000204 <frame_dummy+0x10>)
 80001f8:	b11b      	cbz	r3, 8000202 <frame_dummy+0xe>
 80001fa:	4903      	ldr	r1, [pc, #12]	@ (8000208 <frame_dummy+0x14>)
 80001fc:	4803      	ldr	r0, [pc, #12]	@ (800020c <frame_dummy+0x18>)
 80001fe:	f3af 8000 	nop.w
 8000202:	bd08      	pop	{r3, pc}
 8000204:	00000000 	.word	0x00000000
 8000208:	200001cc 	.word	0x200001cc
 800020c:	08004c50 	.word	0x08004c50

08000210 <memchr>:
 8000210:	f001 01ff 	and.w	r1, r1, #255	@ 0xff
 8000214:	2a10      	cmp	r2, #16
 8000216:	db2b      	blt.n	8000270 <memchr+0x60>
 8000218:	f010 0f07 	tst.w	r0, #7
 800021c:	d008      	beq.n	8000230 <memchr+0x20>
 800021e:	f810 3b01 	ldrb.w	r3, [r0], #1
 8000222:	3a01      	subs	r2, #1
 8000224:	428b      	cmp	r3, r1
 8000226:	d02d      	beq.n	8000284 <memchr+0x74>
 8000228:	f010 0f07 	tst.w	r0, #7
 800022c:	b342      	cbz	r2, 8000280 <memchr+0x70>
 800022e:	d1f6      	bne.n	800021e <memchr+0xe>
 8000230:	b4f0      	push	{r4, r5, r6, r7}
 8000232:	ea41 2101 	orr.w	r1, r1, r1, lsl #8
 8000236:	ea41 4101 	orr.w	r1, r1, r1, lsl #16
 800023a:	f022 0407 	bic.w	r4, r2, #7
 800023e:	f07f 0700 	mvns.w	r7, #0
 8000242:	2300      	movs	r3, #0
 8000244:	e8f0 5602 	ldrd	r5, r6, [r0], #8
 8000248:	3c08      	subs	r4, #8
 800024a:	ea85 0501 	eor.w	r5, r5, r1
 800024e:	ea86 0601 	eor.w	r6, r6, r1
 8000252:	fa85 f547 	uadd8	r5, r5, r7
 8000256:	faa3 f587 	sel	r5, r3, r7
 800025a:	fa86 f647 	uadd8	r6, r6, r7
 800025e:	faa5 f687 	sel	r6, r5, r7
 8000262:	b98e      	cbnz	r6, 8000288 <memchr+0x78>
 8000264:	d1ee      	bne.n	8000244 <memchr+0x34>
 8000266:	bcf0      	pop	{r4, r5, r6, r7}
 8000268:	f001 01ff 	and.w	r1, r1, #255	@ 0xff
 800026c:	f002 0207 	and.w	r2, r2, #7
 8000270:	b132      	cbz	r2, 8000280 <memchr+0x70>
 8000272:	f810 3b01 	ldrb.w	r3, [r0], #1
 8000276:	3a01      	subs	r2, #1
 8000278:	ea83 0301 	eor.w	r3, r3, r1
 800027c:	b113      	cbz	r3, 8000284 <memchr+0x74>
 800027e:	d1f8      	bne.n	8000272 <memchr+0x62>
 8000280:	2000      	movs	r0, #0
 8000282:	4770      	bx	lr
 8000284:	3801      	subs	r0, #1
 8000286:	4770      	bx	lr
 8000288:	2d00      	cmp	r5, #0
 800028a:	bf06      	itte	eq
 800028c:	4635      	moveq	r5, r6
 800028e:	3803      	subeq	r0, #3
 8000290:	3807      	subne	r0, #7
 8000292:	f015 0f01 	tst.w	r5, #1
 8000296:	d107      	bne.n	80002a8 <memchr+0x98>
 8000298:	3001      	adds	r0, #1
 800029a:	f415 7f80 	tst.w	r5, #256	@ 0x100
 800029e:	bf02      	ittt	eq
 80002a0:	3001      	addeq	r0, #1
 80002a2:	f415 3fc0 	tsteq.w	r5, #98304	@ 0x18000
 80002a6:	3001      	addeq	r0, #1
 80002a8:	bcf0      	pop	{r4, r5, r6, r7}
 80002aa:	3801      	subs	r0, #1
 80002ac:	4770      	bx	lr
 80002ae:	bf00      	nop

080002b0 <__aeabi_uldivmod>:
 80002b0:	b953      	cbnz	r3, 80002c8 <__aeabi_uldivmod+0x18>
 80002b2:	b94a      	cbnz	r2, 80002c8 <__aeabi_uldivmod+0x18>
 80002b4:	2900      	cmp	r1, #0
 80002b6:	bf08      	it	eq
 80002b8:	2800      	cmpeq	r0, #0
 80002ba:	bf1c      	itt	ne
 80002bc:	f04f 31ff 	movne.w	r1, #4294967295	@ 0xffffffff
 80002c0:	f04f 30ff 	movne.w	r0, #4294967295	@ 0xffffffff
 80002c4:	f000 b96a 	b.w	800059c <__aeabi_idiv0>
 80002c8:	f1ad 0c08 	sub.w	ip, sp, #8
 80002cc:	e96d ce04 	strd	ip, lr, [sp, #-16]!
 80002d0:	f000 f806 	bl	80002e0 <__udivmoddi4>
 80002d4:	f8dd e004 	ldr.w	lr, [sp, #4]
 80002d8:	e9dd 2302 	ldrd	r2, r3, [sp, #8]
 80002dc:	b004      	add	sp, #16
 80002de:	4770      	bx	lr

080002e0 <__udivmoddi4>:
 80002e0:	e92d 47f0 	stmdb	sp!, {r4, r5, r6, r7, r8, r9, sl, lr}
 80002e4:	9d08      	ldr	r5, [sp, #32]
 80002e6:	460c      	mov	r4, r1
 80002e8:	2b00      	cmp	r3, #0
 80002ea:	d14e      	bne.n	800038a <__udivmoddi4+0xaa>
 80002ec:	4694      	mov	ip, r2
 80002ee:	458c      	cmp	ip, r1
 80002f0:	4686      	mov	lr, r0
 80002f2:	fab2 f282 	clz	r2, r2
 80002f6:	d962      	bls.n	80003be <__udivmoddi4+0xde>
 80002f8:	b14a      	cbz	r2, 800030e <__udivmoddi4+0x2e>
 80002fa:	f1c2 0320 	rsb	r3, r2, #32
 80002fe:	4091      	lsls	r1, r2
 8000300:	fa20 f303 	lsr.w	r3, r0, r3
 8000304:	fa0c fc02 	lsl.w	ip, ip, r2
 8000308:	4319      	orrs	r1, r3
 800030a:	fa00 fe02 	lsl.w	lr, r0, r2
 800030e:	ea4f 471c 	mov.w	r7, ip, lsr #16
 8000312:	fa1f f68c 	uxth.w	r6, ip
 8000316:	fbb1 f4f7 	udiv	r4, r1, r7
 800031a:	ea4f 431e 	mov.w	r3, lr, lsr #16
 800031e:	fb07 1114 	mls	r1, r7, r4, r1
 8000322:	ea43 4301 	orr.w	r3, r3, r1, lsl #16
 8000326:	fb04 f106 	mul.w	r1, r4, r6
 800032a:	4299      	cmp	r1, r3
 800032c:	d90a      	bls.n	8000344 <__udivmoddi4+0x64>
 800032e:	eb1c 0303 	adds.w	r3, ip, r3
 8000332:	f104 30ff 	add.w	r0, r4, #4294967295	@ 0xffffffff
 8000336:	f080 8112 	bcs.w	800055e <__udivmoddi4+0x27e>
 800033a:	4299      	cmp	r1, r3
 800033c:	f240 810f 	bls.w	800055e <__udivmoddi4+0x27e>
 8000340:	3c02      	subs	r4, #2
 8000342:	4463      	add	r3, ip
 8000344:	1a59      	subs	r1, r3, r1
 8000346:	fa1f f38e 	uxth.w	r3, lr
 800034a:	fbb1 f0f7 	udiv	r0, r1, r7
 800034e:	fb07 1110 	mls	r1, r7, r0, r1
 8000352:	ea43 4301 	orr.w	r3, r3, r1, lsl #16
 8000356:	fb00 f606 	mul.w	r6, r0, r6
 800035a:	429e      	cmp	r6, r3
 800035c:	d90a      	bls.n	8000374 <__udivmoddi4+0x94>
 800035e:	eb1c 0303 	adds.w	r3, ip, r3
 8000362:	f100 31ff 	add.w	r1, r0, #4294967295	@ 0xffffffff
 8000366:	f080 80fc 	bcs.w	8000562 <__udivmoddi4+0x282>
 800036a:	429e      	cmp	r6, r3
 800036c:	f240 80f9 	bls.w	8000562 <__udivmoddi4+0x282>
 8000370:	4463      	add	r3, ip
 8000372:	3802      	subs	r0, #2
 8000374:	1b9b      	subs	r3, r3, r6
 8000376:	ea40 4004 	orr.w	r0, r0, r4, lsl #16
 800037a:	2100      	movs	r1, #0
 800037c:	b11d      	cbz	r5, 8000386 <__udivmoddi4+0xa6>
 800037e:	40d3      	lsrs	r3, r2
 8000380:	2200      	movs	r2, #0
 8000382:	e9c5 3200 	strd	r3, r2, [r5]
 8000386:	e8bd 87f0 	ldmia.w	sp!, {r4, r5, r6, r7, r8, r9, sl, pc}
 800038a:	428b      	cmp	r3, r1
 800038c:	d905      	bls.n	800039a <__udivmoddi4+0xba>
 800038e:	b10d      	cbz	r5, 8000394 <__udivmoddi4+0xb4>
 8000390:	e9c5 0100 	strd	r0, r1, [r5]
 8000394:	2100      	movs	r1, #0
 8000396:	4608      	mov	r0, r1
 8000398:	e7f5      	b.n	8000386 <__udivmoddi4+0xa6>
 800039a:	fab3 f183 	clz	r1, r3
 800039e:	2900      	cmp	r1, #0
 80003a0:	d146      	bne.n	8000430 <__udivmoddi4+0x150>
 80003a2:	42a3      	cmp	r3, r4
 80003a4:	d302      	bcc.n	80003ac <__udivmoddi4+0xcc>
 80003a6:	4290      	cmp	r0, r2
 80003a8:	f0c0 80f0 	bcc.w	800058c <__udivmoddi4+0x2ac>
 80003ac:	1a86      	subs	r6, r0, r2
 80003ae:	eb64 0303 	sbc.w	r3, r4, r3
 80003b2:	2001      	movs	r0, #1
 80003b4:	2d00      	cmp	r5, #0
 80003b6:	d0e6      	beq.n	8000386 <__udivmoddi4+0xa6>
 80003b8:	e9c5 6300 	strd	r6, r3, [r5]
 80003bc:	e7e3      	b.n	8000386 <__udivmoddi4+0xa6>
 80003be:	2a00      	cmp	r2, #0
 80003c0:	f040 8090 	bne.w	80004e4 <__udivmoddi4+0x204>
 80003c4:	eba1 040c 	sub.w	r4, r1, ip
 80003c8:	ea4f 481c 	mov.w	r8, ip, lsr #16
 80003cc:	fa1f f78c 	uxth.w	r7, ip
 80003d0:	2101      	movs	r1, #1
 80003d2:	fbb4 f6f8 	udiv	r6, r4, r8
 80003d6:	ea4f 431e 	mov.w	r3, lr, lsr #16
 80003da:	fb08 4416 	mls	r4, r8, r6, r4
 80003de:	ea43 4304 	orr.w	r3, r3, r4, lsl #16
 80003e2:	fb07 f006 	mul.w	r0, r7, r6
 80003e6:	4298      	cmp	r0, r3
 80003e8:	d908      	bls.n	80003fc <__udivmoddi4+0x11c>
 80003ea:	eb1c 0303 	adds.w	r3, ip, r3
 80003ee:	f106 34ff 	add.w	r4, r6, #4294967295	@ 0xffffffff
 80003f2:	d202      	bcs.n	80003fa <__udivmoddi4+0x11a>
 80003f4:	4298      	cmp	r0, r3
 80003f6:	f200 80cd 	bhi.w	8000594 <__udivmoddi4+0x2b4>
 80003fa:	4626      	mov	r6, r4
 80003fc:	1a1c      	subs	r4, r3, r0
 80003fe:	fa1f f38e 	uxth.w	r3, lr
 8000402:	fbb4 f0f8 	udiv	r0, r4, r8
 8000406:	fb08 4410 	mls	r4, r8, r0, r4
 800040a:	ea43 4304 	orr.w	r3, r3, r4, lsl #16
 800040e:	fb00 f707 	mul.w	r7, r0, r7
 8000412:	429f      	cmp	r7, r3
 8000414:	d908      	bls.n	8000428 <__udivmoddi4+0x148>
 8000416:	eb1c 0303 	adds.w	r3, ip, r3
 800041a:	f100 34ff 	add.w	r4, r0, #4294967295	@ 0xffffffff
 800041e:	d202      	bcs.n	8000426 <__udivmoddi4+0x146>
 8000420:	429f      	cmp	r7, r3
 8000422:	f200 80b0 	bhi.w	8000586 <__udivmoddi4+0x2a6>
 8000426:	4620      	mov	r0, r4
 8000428:	1bdb      	subs	r3, r3, r7
 800042a:	ea40 4006 	orr.w	r0, r0, r6, lsl #16
 800042e:	e7a5      	b.n	800037c <__udivmoddi4+0x9c>
 8000430:	f1c1 0620 	rsb	r6, r1, #32
 8000434:	408b      	lsls	r3, r1
 8000436:	fa22 f706 	lsr.w	r7, r2, r6
 800043a:	431f      	orrs	r7, r3
 800043c:	fa20 fc06 	lsr.w	ip, r0, r6
 8000440:	fa04 f301 	lsl.w	r3, r4, r1
 8000444:	ea43 030c 	orr.w	r3, r3, ip
 8000448:	40f4      	lsrs	r4, r6
 800044a:	fa00 f801 	lsl.w	r8, r0, r1
 800044e:	0c38      	lsrs	r0, r7, #16
 8000450:	ea4f 4913 	mov.w	r9, r3, lsr #16
 8000454:	fbb4 fef0 	udiv	lr, r4, r0
 8000458:	fa1f fc87 	uxth.w	ip, r7
 800045c:	fb00 441e 	mls	r4, r0, lr, r4
 8000460:	ea49 4404 	orr.w	r4, r9, r4, lsl #16
 8000464:	fb0e f90c 	mul.w	r9, lr, ip
 8000468:	45a1      	cmp	r9, r4
 800046a:	fa02 f201 	lsl.w	r2, r2, r1
 800046e:	d90a      	bls.n	8000486 <__udivmoddi4+0x1a6>
 8000470:	193c      	adds	r4, r7, r4
 8000472:	f10e 3aff 	add.w	sl, lr, #4294967295	@ 0xffffffff
 8000476:	f080 8084 	bcs.w	8000582 <__udivmoddi4+0x2a2>
 800047a:	45a1      	cmp	r9, r4
 800047c:	f240 8081 	bls.w	8000582 <__udivmoddi4+0x2a2>
 8000480:	f1ae 0e02 	sub.w	lr, lr, #2
 8000484:	443c      	add	r4, r7
 8000486:	eba4 0409 	sub.w	r4, r4, r9
 800048a:	fa1f f983 	uxth.w	r9, r3
 800048e:	fbb4 f3f0 	udiv	r3, r4, r0
 8000492:	fb00 4413 	mls	r4, r0, r3, r4
 8000496:	ea49 4404 	orr.w	r4, r9, r4, lsl #16
 800049a:	fb03 fc0c 	mul.w	ip, r3, ip
 800049e:	45a4      	cmp	ip, r4
 80004a0:	d907      	bls.n	80004b2 <__udivmoddi4+0x1d2>
 80004a2:	193c      	adds	r4, r7, r4
 80004a4:	f103 30ff 	add.w	r0, r3, #4294967295	@ 0xffffffff
 80004a8:	d267      	bcs.n	800057a <__udivmoddi4+0x29a>
 80004aa:	45a4      	cmp	ip, r4
 80004ac:	d965      	bls.n	800057a <__udivmoddi4+0x29a>
 80004ae:	3b02      	subs	r3, #2
 80004b0:	443c      	add	r4, r7
 80004b2:	ea43 400e 	orr.w	r0, r3, lr, lsl #16
 80004b6:	fba0 9302 	umull	r9, r3, r0, r2
 80004ba:	eba4 040c 	sub.w	r4, r4, ip
 80004be:	429c      	cmp	r4, r3
 80004c0:	46ce      	mov	lr, r9
 80004c2:	469c      	mov	ip, r3
 80004c4:	d351      	bcc.n	800056a <__udivmoddi4+0x28a>
 80004c6:	d04e      	beq.n	8000566 <__udivmoddi4+0x286>
 80004c8:	b155      	cbz	r5, 80004e0 <__udivmoddi4+0x200>
 80004ca:	ebb8 030e 	subs.w	r3, r8, lr
 80004ce:	eb64 040c 	sbc.w	r4, r4, ip
 80004d2:	fa04 f606 	lsl.w	r6, r4, r6
 80004d6:	40cb      	lsrs	r3, r1
 80004d8:	431e      	orrs	r6, r3
 80004da:	40cc      	lsrs	r4, r1
 80004dc:	e9c5 6400 	strd	r6, r4, [r5]
 80004e0:	2100      	movs	r1, #0
 80004e2:	e750      	b.n	8000386 <__udivmoddi4+0xa6>
 80004e4:	f1c2 0320 	rsb	r3, r2, #32
 80004e8:	fa20 f103 	lsr.w	r1, r0, r3
 80004ec:	fa0c fc02 	lsl.w	ip, ip, r2
 80004f0:	fa24 f303 	lsr.w	r3, r4, r3
 80004f4:	4094      	lsls	r4, r2
 80004f6:	430c      	orrs	r4, r1
 80004f8:	ea4f 481c 	mov.w	r8, ip, lsr #16
 80004fc:	fa00 fe02 	lsl.w	lr, r0, r2
 8000500:	fa1f f78c 	uxth.w	r7, ip
 8000504:	fbb3 f0f8 	udiv	r0, r3, r8
 8000508:	fb08 3110 	mls	r1, r8, r0, r3
 800050c:	0c23      	lsrs	r3, r4, #16
 800050e:	ea43 4301 	orr.w	r3, r3, r1, lsl #16
 8000512:	fb00 f107 	mul.w	r1, r0, r7
 8000516:	4299      	cmp	r1, r3
 8000518:	d908      	bls.n	800052c <__udivmoddi4+0x24c>
 800051a:	eb1c 0303 	adds.w	r3, ip, r3
 800051e:	f100 36ff 	add.w	r6, r0, #4294967295	@ 0xffffffff
 8000522:	d22c      	bcs.n	800057e <__udivmoddi4+0x29e>
 8000524:	4299      	cmp	r1, r3
 8000526:	d92a      	bls.n	800057e <__udivmoddi4+0x29e>
 8000528:	3802      	subs	r0, #2
 800052a:	4463      	add	r3, ip
 800052c:	1a5b      	subs	r3, r3, r1
 800052e:	b2a4      	uxth	r4, r4
 8000530:	fbb3 f1f8 	udiv	r1, r3, r8
 8000534:	fb08 3311 	mls	r3, r8, r1, r3
 8000538:	ea44 4403 	orr.w	r4, r4, r3, lsl #16
 800053c:	fb01 f307 	mul.w	r3, r1, r7
 8000540:	42a3      	cmp	r3, r4
 8000542:	d908      	bls.n	8000556 <__udivmoddi4+0x276>
 8000544:	eb1c 0404 	adds.w	r4, ip, r4
 8000548:	f101 36ff 	add.w	r6, r1, #4294967295	@ 0xffffffff
 800054c:	d213      	bcs.n	8000576 <__udivmoddi4+0x296>
 800054e:	42a3      	cmp	r3, r4
 8000550:	d911      	bls.n	8000576 <__udivmoddi4+0x296>
 8000552:	3902      	subs	r1, #2
 8000554:	4464      	add	r4, ip
 8000556:	1ae4      	subs	r4, r4, r3
 8000558:	ea41 4100 	orr.w	r1, r1, r0, lsl #16
 800055c:	e739      	b.n	80003d2 <__udivmoddi4+0xf2>
 800055e:	4604      	mov	r4, r0
 8000560:	e6f0      	b.n	8000344 <__udivmoddi4+0x64>
 8000562:	4608      	mov	r0, r1
 8000564:	e706      	b.n	8000374 <__udivmoddi4+0x94>
 8000566:	45c8      	cmp	r8, r9
 8000568:	d2ae      	bcs.n	80004c8 <__udivmoddi4+0x1e8>
 800056a:	ebb9 0e02 	subs.w	lr, r9, r2
 800056e:	eb63 0c07 	sbc.w	ip, r3, r7
 8000572:	3801      	subs	r0, #1
 8000574:	e7a8      	b.n	80004c8 <__udivmoddi4+0x1e8>
 8000576:	4631      	mov	r1, r6
 8000578:	e7ed      	b.n	8000556 <__udivmoddi4+0x276>
 800057a:	4603      	mov	r3, r0
 800057c:	e799      	b.n	80004b2 <__udivmoddi4+0x1d2>
 800057e:	4630      	mov	r0, r6
 8000580:	e7d4      	b.n	800052c <__udivmoddi4+0x24c>
 8000582:	46d6      	mov	lr, sl
 8000584:	e77f      	b.n	8000486 <__udivmoddi4+0x1a6>
 8000586:	4463      	add	r3, ip
 8000588:	3802      	subs	r0, #2
 800058a:	e74d      	b.n	8000428 <__udivmoddi4+0x148>
 800058c:	4606      	mov	r6, r0
 800058e:	4623      	mov	r3, r4
 8000590:	4608      	mov	r0, r1
 8000592:	e70f      	b.n	80003b4 <__udivmoddi4+0xd4>
 8000594:	3e02      	subs	r6, #2
 8000596:	4463      	add	r3, ip
 8000598:	e730      	b.n	80003fc <__udivmoddi4+0x11c>
 800059a:	bf00      	nop

0800059c <__aeabi_idiv0>:
 800059c:	4770      	bx	lr
 800059e:	bf00      	nop

080005a0 <H>:
 80005a0:	3b02      	subs	r3, #2
 80005a2:	b513      	push	{r0, r1, r4, lr}
 80005a4:	2b06      	cmp	r3, #6
 80005a6:	d80a      	bhi.n	80005be <H+0x1e>
 80005a8:	e8df f003 	tbb	[pc, r3]
 80005ac:	090b0904 	.word	0x090b0904
 80005b0:	0911      	.short	0x0911
 80005b2:	17          	.byte	0x17
 80005b3:	00          	.byte	0x00
 80005b4:	9200      	str	r2, [sp, #0]
 80005b6:	460b      	mov	r3, r1
 80005b8:	4602      	mov	r2, r0
 80005ba:	f000 fe52 	bl	8001262 <two_Rounds_aes128_encrypt_ffs>
 80005be:	b002      	add	sp, #8
 80005c0:	bd10      	pop	{r4, pc}
 80005c2:	9200      	str	r2, [sp, #0]
 80005c4:	460b      	mov	r3, r1
 80005c6:	4602      	mov	r2, r0
 80005c8:	f000 fe74 	bl	80012b4 <four_Rounds_aes128_encrypt_ffs>
 80005cc:	e7f7      	b.n	80005be <H+0x1e>
 80005ce:	9200      	str	r2, [sp, #0]
 80005d0:	460b      	mov	r3, r1
 80005d2:	4602      	mov	r2, r0
 80005d4:	f000 fea6 	bl	8001324 <six_Rounds_aes128_encrypt_ffs>
 80005d8:	e7f1      	b.n	80005be <H+0x1e>
 80005da:	9200      	str	r2, [sp, #0]
 80005dc:	460b      	mov	r3, r1
 80005de:	4602      	mov	r2, r0
 80005e0:	f000 feed 	bl	80013be <eigth_Rounds_aes128_encrypt_ffs>
 80005e4:	e7eb      	b.n	80005be <H+0x1e>

080005e6 <add_nonce>:
 80005e6:	b570      	push	{r4, r5, r6, lr}
 80005e8:	2400      	movs	r4, #0
 80005ea:	429c      	cmp	r4, r3
 80005ec:	d100      	bne.n	80005f0 <add_nonce+0xa>
 80005ee:	bd70      	pop	{r4, r5, r6, pc}
 80005f0:	f851 5024 	ldr.w	r5, [r1, r4, lsl #2]
 80005f4:	f850 6024 	ldr.w	r6, [r0, r4, lsl #2]
 80005f8:	4435      	add	r5, r6
 80005fa:	f842 5024 	str.w	r5, [r2, r4, lsl #2]
 80005fe:	3401      	adds	r4, #1
 8000600:	e7f3      	b.n	80005ea <add_nonce+0x4>

08000602 <xor_nonce>:
 8000602:	3801      	subs	r0, #1
 8000604:	440a      	add	r2, r1
 8000606:	b510      	push	{r4, lr}
 8000608:	4291      	cmp	r1, r2
 800060a:	d100      	bne.n	800060e <xor_nonce+0xc>
 800060c:	bd10      	pop	{r4, pc}
 800060e:	f811 3b01 	ldrb.w	r3, [r1], #1
 8000612:	f810 4f01 	ldrb.w	r4, [r0, #1]!
 8000616:	4063      	eors	r3, r4
 8000618:	7003      	strb	r3, [r0, #0]
 800061a:	e7f5      	b.n	8000608 <xor_nonce+0x6>

0800061c <divide_plaintext>:
 800061c:	b5f0      	push	{r4, r5, r6, r7, lr}
 800061e:	2400      	movs	r4, #0
 8000620:	2501      	movs	r5, #1
 8000622:	4627      	mov	r7, r4
 8000624:	4626      	mov	r6, r4
 8000626:	429c      	cmp	r4, r3
 8000628:	d100      	bne.n	800062c <divide_plaintext+0x10>
 800062a:	bdf0      	pop	{r4, r5, r6, r7, pc}
 800062c:	f014 0f0f 	tst.w	r4, #15
 8000630:	d102      	bne.n	8000638 <divide_plaintext+0x1c>
 8000632:	b10c      	cbz	r4, 8000638 <divide_plaintext+0x1c>
 8000634:	f085 0501 	eor.w	r5, r5, #1
 8000638:	f810 c004 	ldrb.w	ip, [r0, r4]
 800063c:	b125      	cbz	r5, 8000648 <divide_plaintext+0x2c>
 800063e:	f801 c006 	strb.w	ip, [r1, r6]
 8000642:	3601      	adds	r6, #1
 8000644:	3401      	adds	r4, #1
 8000646:	e7ee      	b.n	8000626 <divide_plaintext+0xa>
 8000648:	f802 c007 	strb.w	ip, [r2, r7]
 800064c:	3701      	adds	r7, #1
 800064e:	e7f9      	b.n	8000644 <divide_plaintext+0x28>

08000650 <print_array>:
 8000650:	b5f8      	push	{r3, r4, r5, r6, r7, lr}
 8000652:	4606      	mov	r6, r0
 8000654:	460d      	mov	r5, r1
 8000656:	2400      	movs	r4, #0
 8000658:	4f06      	ldr	r7, [pc, #24]	@ (8000674 <print_array+0x24>)
 800065a:	42a5      	cmp	r5, r4
 800065c:	d804      	bhi.n	8000668 <print_array+0x18>
 800065e:	200a      	movs	r0, #10
 8000660:	e8bd 40f8 	ldmia.w	sp!, {r3, r4, r5, r6, r7, lr}
 8000664:	f003 ba86 	b.w	8003b74 <putchar>
 8000668:	5d31      	ldrb	r1, [r6, r4]
 800066a:	4638      	mov	r0, r7
 800066c:	3401      	adds	r4, #1
 800066e:	f003 fa6f 	bl	8003b50 <iprintf>
 8000672:	e7f2      	b.n	800065a <print_array+0xa>
 8000674:	08004c98 	.word	0x08004c98

08000678 <ELIMAC>:
 8000678:	e92d 4ff0 	stmdb	sp!, {r4, r5, r6, r7, r8, r9, sl, fp, lr}
 800067c:	f5ad 7d59 	sub.w	sp, sp, #868	@ 0x364
 8000680:	4692      	mov	sl, r2
 8000682:	4a79      	ldr	r2, [pc, #484]	@ (8000868 <ELIMAC+0x1f0>)
 8000684:	4683      	mov	fp, r0
 8000686:	af02      	add	r7, sp, #8
 8000688:	f102 0c10 	add.w	ip, r2, #16
 800068c:	460c      	mov	r4, r1
 800068e:	607b      	str	r3, [r7, #4]
 8000690:	f107 0e08 	add.w	lr, r7, #8
 8000694:	f897 3380 	ldrb.w	r3, [r7, #896]	@ 0x380
 8000698:	46e1      	mov	r9, ip
 800069a:	603b      	str	r3, [r7, #0]
 800069c:	1dcb      	adds	r3, r1, #7
 800069e:	f403 73fc 	and.w	r3, r3, #504	@ 0x1f8
 80006a2:	ebad 0d03 	sub.w	sp, sp, r3
 80006a6:	ae02      	add	r6, sp, #8
 80006a8:	ebad 0d03 	sub.w	sp, sp, r3
 80006ac:	f10d 0808 	add.w	r8, sp, #8
 80006b0:	6810      	ldr	r0, [r2, #0]
 80006b2:	3208      	adds	r2, #8
 80006b4:	f852 1c04 	ldr.w	r1, [r2, #-4]
 80006b8:	4675      	mov	r5, lr
 80006ba:	4562      	cmp	r2, ip
 80006bc:	c503      	stmia	r5!, {r0, r1}
 80006be:	46ae      	mov	lr, r5
 80006c0:	d1f6      	bne.n	80006b0 <ELIMAC+0x38>
 80006c2:	4a69      	ldr	r2, [pc, #420]	@ (8000868 <ELIMAC+0x1f0>)
 80006c4:	f107 0e18 	add.w	lr, r7, #24
 80006c8:	6810      	ldr	r0, [r2, #0]
 80006ca:	3208      	adds	r2, #8
 80006cc:	f852 1c04 	ldr.w	r1, [r2, #-4]
 80006d0:	4675      	mov	r5, lr
 80006d2:	4562      	cmp	r2, ip
 80006d4:	c503      	stmia	r5!, {r0, r1}
 80006d6:	46ae      	mov	lr, r5
 80006d8:	d1f6      	bne.n	80006c8 <ELIMAC+0x50>
 80006da:	4d63      	ldr	r5, [pc, #396]	@ (8000868 <ELIMAC+0x1f0>)
 80006dc:	f107 0e28 	add.w	lr, r7, #40	@ 0x28
 80006e0:	f105 0c10 	add.w	ip, r5, #16
 80006e4:	6828      	ldr	r0, [r5, #0]
 80006e6:	3508      	adds	r5, #8
 80006e8:	f855 1c04 	ldr.w	r1, [r5, #-4]
 80006ec:	4672      	mov	r2, lr
 80006ee:	4565      	cmp	r5, ip
 80006f0:	c203      	stmia	r2!, {r0, r1}
 80006f2:	4696      	mov	lr, r2
 80006f4:	d1f6      	bne.n	80006e4 <ELIMAC+0x6c>
 80006f6:	4a5c      	ldr	r2, [pc, #368]	@ (8000868 <ELIMAC+0x1f0>)
 80006f8:	f107 0e38 	add.w	lr, r7, #56	@ 0x38
 80006fc:	6810      	ldr	r0, [r2, #0]
 80006fe:	3208      	adds	r2, #8
 8000700:	f852 1c04 	ldr.w	r1, [r2, #-4]
 8000704:	4675      	mov	r5, lr
 8000706:	4562      	cmp	r2, ip
 8000708:	c503      	stmia	r5!, {r0, r1}
 800070a:	46ae      	mov	lr, r5
 800070c:	d1f6      	bne.n	80006fc <ELIMAC+0x84>
 800070e:	2210      	movs	r2, #16
 8000710:	2100      	movs	r1, #0
 8000712:	f107 0068 	add.w	r0, r7, #104	@ 0x68
 8000716:	f107 0578 	add.w	r5, r7, #120	@ 0x78
 800071a:	f003 fa96 	bl	8003c4a <memset>
 800071e:	e899 000f 	ldmia.w	r9, {r0, r1, r2, r3}
 8000722:	e885 000f 	stmia.w	r5, {r0, r1, r2, r3}
 8000726:	4b51      	ldr	r3, [pc, #324]	@ (800086c <ELIMAC+0x1f4>)
 8000728:	f107 0588 	add.w	r5, r7, #136	@ 0x88
 800072c:	cb0f      	ldmia	r3, {r0, r1, r2, r3}
 800072e:	e885 000f 	stmia.w	r5, {r0, r1, r2, r3}
 8000732:	4622      	mov	r2, r4
 8000734:	2100      	movs	r1, #0
 8000736:	4640      	mov	r0, r8
 8000738:	2500      	movs	r5, #0
 800073a:	f003 fa86 	bl	8003c4a <memset>
 800073e:	4622      	mov	r2, r4
 8000740:	2100      	movs	r1, #0
 8000742:	4630      	mov	r0, r6
 8000744:	f003 fa81 	bl	8003c4a <memset>
 8000748:	4623      	mov	r3, r4
 800074a:	4642      	mov	r2, r8
 800074c:	4631      	mov	r1, r6
 800074e:	4658      	mov	r0, fp
 8000750:	0964      	lsrs	r4, r4, #5
 8000752:	f7ff ff63 	bl	800061c <divide_plaintext>
 8000756:	2210      	movs	r2, #16
 8000758:	2100      	movs	r1, #0
 800075a:	f107 0048 	add.w	r0, r7, #72	@ 0x48
 800075e:	f003 fa74 	bl	8003c4a <memset>
 8000762:	2210      	movs	r2, #16
 8000764:	2100      	movs	r1, #0
 8000766:	f107 0058 	add.w	r0, r7, #88	@ 0x58
 800076a:	f003 fa6e 	bl	8003c4a <memset>
 800076e:	4652      	mov	r2, sl
 8000770:	4651      	mov	r1, sl
 8000772:	f507 70fc 	add.w	r0, r7, #504	@ 0x1f8
 8000776:	f000 ff03 	bl	8001580 <aes128_keyschedule_ffs>
 800077a:	687a      	ldr	r2, [r7, #4]
 800077c:	f107 0098 	add.w	r0, r7, #152	@ 0x98
 8000780:	4611      	mov	r1, r2
 8000782:	f000 fefd 	bl	8001580 <aes128_keyschedule_ffs>
 8000786:	42a5      	cmp	r5, r4
 8000788:	db21      	blt.n	80007ce <ELIMAC+0x156>
 800078a:	f107 0048 	add.w	r0, r7, #72	@ 0x48
 800078e:	2110      	movs	r1, #16
 8000790:	f7ff ff5e 	bl	8000650 <print_array>
 8000794:	f107 0058 	add.w	r0, r7, #88	@ 0x58
 8000798:	2110      	movs	r1, #16
 800079a:	f7ff ff59 	bl	8000650 <print_array>
 800079e:	f107 0158 	add.w	r1, r7, #88	@ 0x58
 80007a2:	f107 0048 	add.w	r0, r7, #72	@ 0x48
 80007a6:	2210      	movs	r2, #16
 80007a8:	f7ff ff2b 	bl	8000602 <xor_nonce>
 80007ac:	f107 0398 	add.w	r3, r7, #152	@ 0x98
 80007b0:	f107 0158 	add.w	r1, r7, #88	@ 0x58
 80007b4:	9300      	str	r3, [sp, #0]
 80007b6:	f107 0348 	add.w	r3, r7, #72	@ 0x48
 80007ba:	f8d7 0384 	ldr.w	r0, [r7, #900]	@ 0x384
 80007be:	461a      	mov	r2, r3
 80007c0:	f000 fce0 	bl	8001184 <aes128_encrypt_ffs>
 80007c4:	f507 7757 	add.w	r7, r7, #860	@ 0x35c
 80007c8:	46bd      	mov	sp, r7
 80007ca:	e8bd 8ff0 	ldmia.w	sp!, {r4, r5, r6, r7, r8, r9, sl, fp, pc}
 80007ce:	2304      	movs	r3, #4
 80007d0:	f107 0228 	add.w	r2, r7, #40	@ 0x28
 80007d4:	f107 0108 	add.w	r1, r7, #8
 80007d8:	f107 0068 	add.w	r0, r7, #104	@ 0x68
 80007dc:	ea4f 1905 	mov.w	r9, r5, lsl #4
 80007e0:	f7ff ff01 	bl	80005e6 <add_nonce>
 80007e4:	f107 0238 	add.w	r2, r7, #56	@ 0x38
 80007e8:	eb06 1a05 	add.w	sl, r6, r5, lsl #4
 80007ec:	f107 0118 	add.w	r1, r7, #24
 80007f0:	f107 0078 	add.w	r0, r7, #120	@ 0x78
 80007f4:	44c1      	add	r9, r8
 80007f6:	f7ff fef6 	bl	80005e6 <add_nonce>
 80007fa:	683b      	ldr	r3, [r7, #0]
 80007fc:	f507 72fc 	add.w	r2, r7, #504	@ 0x1f8
 8000800:	f107 0138 	add.w	r1, r7, #56	@ 0x38
 8000804:	f107 0028 	add.w	r0, r7, #40	@ 0x28
 8000808:	3501      	adds	r5, #1
 800080a:	f7ff fec9 	bl	80005a0 <H>
 800080e:	2210      	movs	r2, #16
 8000810:	f107 0128 	add.w	r1, r7, #40	@ 0x28
 8000814:	4650      	mov	r0, sl
 8000816:	f7ff fef4 	bl	8000602 <xor_nonce>
 800081a:	2210      	movs	r2, #16
 800081c:	f107 0138 	add.w	r1, r7, #56	@ 0x38
 8000820:	4648      	mov	r0, r9
 8000822:	f7ff feee 	bl	8000602 <xor_nonce>
 8000826:	2304      	movs	r3, #4
 8000828:	f107 0298 	add.w	r2, r7, #152	@ 0x98
 800082c:	4641      	mov	r1, r8
 800082e:	4630      	mov	r0, r6
 8000830:	f7ff feb6 	bl	80005a0 <H>
 8000834:	2210      	movs	r2, #16
 8000836:	4651      	mov	r1, sl
 8000838:	f107 0048 	add.w	r0, r7, #72	@ 0x48
 800083c:	f7ff fee1 	bl	8000602 <xor_nonce>
 8000840:	2210      	movs	r2, #16
 8000842:	4649      	mov	r1, r9
 8000844:	f107 0058 	add.w	r0, r7, #88	@ 0x58
 8000848:	f7ff fedb 	bl	8000602 <xor_nonce>
 800084c:	f107 0268 	add.w	r2, r7, #104	@ 0x68
 8000850:	2304      	movs	r3, #4
 8000852:	f107 0088 	add.w	r0, r7, #136	@ 0x88
 8000856:	4611      	mov	r1, r2
 8000858:	f7ff fec5 	bl	80005e6 <add_nonce>
 800085c:	f107 0278 	add.w	r2, r7, #120	@ 0x78
 8000860:	4611      	mov	r1, r2
 8000862:	f7ff fec0 	bl	80005e6 <add_nonce>
 8000866:	e78e      	b.n	8000786 <ELIMAC+0x10e>
 8000868:	08004c68 	.word	0x08004c68
 800086c:	08004c88 	.word	0x08004c88

08000870 <unpacking>:
 8000870:	6813      	ldr	r3, [r2, #0]
 8000872:	f8d2 c008 	ldr.w	ip, [r2, #8]
 8000876:	e92d 43f0 	stmdb	sp!, {r4, r5, r6, r7, r8, r9, lr}
 800087a:	6915      	ldr	r5, [r2, #16]
 800087c:	6857      	ldr	r7, [r2, #4]
 800087e:	ea83 1415 	eor.w	r4, r3, r5, lsr #4
 8000882:	f8d2 801c 	ldr.w	r8, [r2, #28]
 8000886:	f004 340f 	and.w	r4, r4, #252645135	@ 0xf0f0f0f
 800088a:	4063      	eors	r3, r4
 800088c:	ea85 1504 	eor.w	r5, r5, r4, lsl #4
 8000890:	6954      	ldr	r4, [r2, #20]
 8000892:	ea87 1614 	eor.w	r6, r7, r4, lsr #4
 8000896:	f006 360f 	and.w	r6, r6, #252645135	@ 0xf0f0f0f
 800089a:	ea87 0e06 	eor.w	lr, r7, r6
 800089e:	6997      	ldr	r7, [r2, #24]
 80008a0:	ea84 1406 	eor.w	r4, r4, r6, lsl #4
 80008a4:	ea8c 1617 	eor.w	r6, ip, r7, lsr #4
 80008a8:	f006 360f 	and.w	r6, r6, #252645135	@ 0xf0f0f0f
 80008ac:	ea87 1706 	eor.w	r7, r7, r6, lsl #4
 80008b0:	ea8c 0c06 	eor.w	ip, ip, r6
 80008b4:	68d6      	ldr	r6, [r2, #12]
 80008b6:	ea86 1918 	eor.w	r9, r6, r8, lsr #4
 80008ba:	f009 390f 	and.w	r9, r9, #252645135	@ 0xf0f0f0f
 80008be:	ea88 1809 	eor.w	r8, r8, r9, lsl #4
 80008c2:	ea86 0609 	eor.w	r6, r6, r9
 80008c6:	ea83 099c 	eor.w	r9, r3, ip, lsr #2
 80008ca:	f009 3933 	and.w	r9, r9, #858993459	@ 0x33333333
 80008ce:	ea83 0309 	eor.w	r3, r3, r9
 80008d2:	ea8c 0c89 	eor.w	ip, ip, r9, lsl #2
 80008d6:	ea8e 0996 	eor.w	r9, lr, r6, lsr #2
 80008da:	f009 3933 	and.w	r9, r9, #858993459	@ 0x33333333
 80008de:	ea8e 0e09 	eor.w	lr, lr, r9
 80008e2:	ea86 0689 	eor.w	r6, r6, r9, lsl #2
 80008e6:	ea85 0997 	eor.w	r9, r5, r7, lsr #2
 80008ea:	f009 3933 	and.w	r9, r9, #858993459	@ 0x33333333
 80008ee:	ea85 0509 	eor.w	r5, r5, r9
 80008f2:	ea87 0989 	eor.w	r9, r7, r9, lsl #2
 80008f6:	ea84 0798 	eor.w	r7, r4, r8, lsr #2
 80008fa:	f007 3733 	and.w	r7, r7, #858993459	@ 0x33333333
 80008fe:	407c      	eors	r4, r7
 8000900:	ea88 0787 	eor.w	r7, r8, r7, lsl #2
 8000904:	ea83 085e 	eor.w	r8, r3, lr, lsr #1
 8000908:	f008 3855 	and.w	r8, r8, #1431655765	@ 0x55555555
 800090c:	ea8e 0e48 	eor.w	lr, lr, r8, lsl #1
 8000910:	ea83 0308 	eor.w	r3, r3, r8
 8000914:	f8c2 e004 	str.w	lr, [r2, #4]
 8000918:	ea8c 0e56 	eor.w	lr, ip, r6, lsr #1
 800091c:	6013      	str	r3, [r2, #0]
 800091e:	f00e 3e55 	and.w	lr, lr, #1431655765	@ 0x55555555
 8000922:	ea86 064e 	eor.w	r6, r6, lr, lsl #1
 8000926:	ea8c 0c0e 	eor.w	ip, ip, lr
 800092a:	60d6      	str	r6, [r2, #12]
 800092c:	ea85 0654 	eor.w	r6, r5, r4, lsr #1
 8000930:	f8c2 c008 	str.w	ip, [r2, #8]
 8000934:	f006 3655 	and.w	r6, r6, #1431655765	@ 0x55555555
 8000938:	ea84 0446 	eor.w	r4, r4, r6, lsl #1
 800093c:	4075      	eors	r5, r6
 800093e:	6154      	str	r4, [r2, #20]
 8000940:	ea89 0457 	eor.w	r4, r9, r7, lsr #1
 8000944:	6115      	str	r5, [r2, #16]
 8000946:	f004 3455 	and.w	r4, r4, #1431655765	@ 0x55555555
 800094a:	ea89 0504 	eor.w	r5, r9, r4
 800094e:	ea87 0744 	eor.w	r7, r7, r4, lsl #1
 8000952:	6195      	str	r5, [r2, #24]
 8000954:	61d7      	str	r7, [r2, #28]
 8000956:	7003      	strb	r3, [r0, #0]
 8000958:	6813      	ldr	r3, [r2, #0]
 800095a:	0a1b      	lsrs	r3, r3, #8
 800095c:	7043      	strb	r3, [r0, #1]
 800095e:	8853      	ldrh	r3, [r2, #2]
 8000960:	7083      	strb	r3, [r0, #2]
 8000962:	78d3      	ldrb	r3, [r2, #3]
 8000964:	70c3      	strb	r3, [r0, #3]
 8000966:	6893      	ldr	r3, [r2, #8]
 8000968:	7103      	strb	r3, [r0, #4]
 800096a:	6893      	ldr	r3, [r2, #8]
 800096c:	0a1b      	lsrs	r3, r3, #8
 800096e:	7143      	strb	r3, [r0, #5]
 8000970:	8953      	ldrh	r3, [r2, #10]
 8000972:	7183      	strb	r3, [r0, #6]
 8000974:	7ad3      	ldrb	r3, [r2, #11]
 8000976:	71c3      	strb	r3, [r0, #7]
 8000978:	6913      	ldr	r3, [r2, #16]
 800097a:	7203      	strb	r3, [r0, #8]
 800097c:	6913      	ldr	r3, [r2, #16]
 800097e:	0a1b      	lsrs	r3, r3, #8
 8000980:	7243      	strb	r3, [r0, #9]
 8000982:	8a53      	ldrh	r3, [r2, #18]
 8000984:	7283      	strb	r3, [r0, #10]
 8000986:	7cd3      	ldrb	r3, [r2, #19]
 8000988:	72c3      	strb	r3, [r0, #11]
 800098a:	6993      	ldr	r3, [r2, #24]
 800098c:	7303      	strb	r3, [r0, #12]
 800098e:	6993      	ldr	r3, [r2, #24]
 8000990:	0a1b      	lsrs	r3, r3, #8
 8000992:	7343      	strb	r3, [r0, #13]
 8000994:	8b53      	ldrh	r3, [r2, #26]
 8000996:	7383      	strb	r3, [r0, #14]
 8000998:	7ed3      	ldrb	r3, [r2, #27]
 800099a:	73c3      	strb	r3, [r0, #15]
 800099c:	6853      	ldr	r3, [r2, #4]
 800099e:	700b      	strb	r3, [r1, #0]
 80009a0:	6853      	ldr	r3, [r2, #4]
 80009a2:	0a1b      	lsrs	r3, r3, #8
 80009a4:	704b      	strb	r3, [r1, #1]
 80009a6:	88d3      	ldrh	r3, [r2, #6]
 80009a8:	708b      	strb	r3, [r1, #2]
 80009aa:	79d3      	ldrb	r3, [r2, #7]
 80009ac:	70cb      	strb	r3, [r1, #3]
 80009ae:	68d3      	ldr	r3, [r2, #12]
 80009b0:	710b      	strb	r3, [r1, #4]
 80009b2:	68d3      	ldr	r3, [r2, #12]
 80009b4:	0a1b      	lsrs	r3, r3, #8
 80009b6:	714b      	strb	r3, [r1, #5]
 80009b8:	89d3      	ldrh	r3, [r2, #14]
 80009ba:	718b      	strb	r3, [r1, #6]
 80009bc:	7bd3      	ldrb	r3, [r2, #15]
 80009be:	71cb      	strb	r3, [r1, #7]
 80009c0:	6953      	ldr	r3, [r2, #20]
 80009c2:	720b      	strb	r3, [r1, #8]
 80009c4:	6953      	ldr	r3, [r2, #20]
 80009c6:	0a1b      	lsrs	r3, r3, #8
 80009c8:	724b      	strb	r3, [r1, #9]
 80009ca:	8ad3      	ldrh	r3, [r2, #22]
 80009cc:	728b      	strb	r3, [r1, #10]
 80009ce:	7dd3      	ldrb	r3, [r2, #23]
 80009d0:	72cb      	strb	r3, [r1, #11]
 80009d2:	69d3      	ldr	r3, [r2, #28]
 80009d4:	730b      	strb	r3, [r1, #12]
 80009d6:	69d3      	ldr	r3, [r2, #28]
 80009d8:	0a1b      	lsrs	r3, r3, #8
 80009da:	734b      	strb	r3, [r1, #13]
 80009dc:	8bd3      	ldrh	r3, [r2, #30]
 80009de:	738b      	strb	r3, [r1, #14]
 80009e0:	7fd3      	ldrb	r3, [r2, #31]
 80009e2:	73cb      	strb	r3, [r1, #15]
 80009e4:	e8bd 83f0 	ldmia.w	sp!, {r4, r5, r6, r7, r8, r9, pc}

080009e8 <ark>:
 80009e8:	1f03      	subs	r3, r0, #4
 80009ea:	3904      	subs	r1, #4
 80009ec:	301c      	adds	r0, #28
 80009ee:	b510      	push	{r4, lr}
 80009f0:	f853 2f04 	ldr.w	r2, [r3, #4]!
 80009f4:	f851 4f04 	ldr.w	r4, [r1, #4]!
 80009f8:	4283      	cmp	r3, r0
 80009fa:	ea82 0204 	eor.w	r2, r2, r4
 80009fe:	601a      	str	r2, [r3, #0]
 8000a00:	d1f6      	bne.n	80009f0 <ark+0x8>
 8000a02:	bd10      	pop	{r4, pc}

08000a04 <double_shiftrows>:
 8000a04:	1f02      	subs	r2, r0, #4
 8000a06:	301c      	adds	r0, #28
 8000a08:	f852 3f04 	ldr.w	r3, [r2, #4]!
 8000a0c:	ea83 1113 	eor.w	r1, r3, r3, lsr #4
 8000a10:	4290      	cmp	r0, r2
 8000a12:	f001 210f 	and.w	r1, r1, #251662080	@ 0xf000f00
 8000a16:	ea83 0301 	eor.w	r3, r3, r1
 8000a1a:	ea83 1301 	eor.w	r3, r3, r1, lsl #4
 8000a1e:	6013      	str	r3, [r2, #0]
 8000a20:	d1f2      	bne.n	8000a08 <double_shiftrows+0x4>
 8000a22:	4770      	bx	lr

08000a24 <mixcolumns_0>:
 8000a24:	6803      	ldr	r3, [r0, #0]
 8000a26:	b5f0      	push	{r4, r5, r6, r7, lr}
 8000a28:	009a      	lsls	r2, r3, #2
 8000a2a:	099c      	lsrs	r4, r3, #6
 8000a2c:	f002 32fc 	and.w	r2, r2, #4244438268	@ 0xfcfcfcfc
 8000a30:	f004 3403 	and.w	r4, r4, #50529027	@ 0x3030303
 8000a34:	4314      	orrs	r4, r2
 8000a36:	69c2      	ldr	r2, [r0, #28]
 8000a38:	0991      	lsrs	r1, r2, #6
 8000a3a:	0095      	lsls	r5, r2, #2
 8000a3c:	f001 3103 	and.w	r1, r1, #50529027	@ 0x3030303
 8000a40:	ea83 2334 	eor.w	r3, r3, r4, ror #8
 8000a44:	f005 35fc 	and.w	r5, r5, #4244438268	@ 0xfcfcfcfc
 8000a48:	4329      	orrs	r1, r5
 8000a4a:	ea82 2231 	eor.w	r2, r2, r1, ror #8
 8000a4e:	ea83 2131 	eor.w	r1, r3, r1, ror #8
 8000a52:	0915      	lsrs	r5, r2, #4
 8000a54:	0116      	lsls	r6, r2, #4
 8000a56:	405a      	eors	r2, r3
 8000a58:	f005 350f 	and.w	r5, r5, #252645135	@ 0xf0f0f0f
 8000a5c:	f006 36f0 	and.w	r6, r6, #4042322160	@ 0xf0f0f0f0
 8000a60:	4335      	orrs	r5, r6
 8000a62:	ea81 4135 	eor.w	r1, r1, r5, ror #16
 8000a66:	6985      	ldr	r5, [r0, #24]
 8000a68:	61c1      	str	r1, [r0, #28]
 8000a6a:	00ae      	lsls	r6, r5, #2
 8000a6c:	09a9      	lsrs	r1, r5, #6
 8000a6e:	f006 36fc 	and.w	r6, r6, #4244438268	@ 0xfcfcfcfc
 8000a72:	f001 3103 	and.w	r1, r1, #50529027	@ 0x3030303
 8000a76:	4331      	orrs	r1, r6
 8000a78:	ea85 2531 	eor.w	r5, r5, r1, ror #8
 8000a7c:	ea82 2231 	eor.w	r2, r2, r1, ror #8
 8000a80:	6941      	ldr	r1, [r0, #20]
 8000a82:	092e      	lsrs	r6, r5, #4
 8000a84:	012f      	lsls	r7, r5, #4
 8000a86:	f006 360f 	and.w	r6, r6, #252645135	@ 0xf0f0f0f
 8000a8a:	f007 37f0 	and.w	r7, r7, #4042322160	@ 0xf0f0f0f0
 8000a8e:	433e      	orrs	r6, r7
 8000a90:	ea82 4236 	eor.w	r2, r2, r6, ror #16
 8000a94:	008e      	lsls	r6, r1, #2
 8000a96:	6182      	str	r2, [r0, #24]
 8000a98:	098a      	lsrs	r2, r1, #6
 8000a9a:	f006 36fc 	and.w	r6, r6, #4244438268	@ 0xfcfcfcfc
 8000a9e:	f002 3203 	and.w	r2, r2, #50529027	@ 0x3030303
 8000aa2:	4332      	orrs	r2, r6
 8000aa4:	ea81 2132 	eor.w	r1, r1, r2, ror #8
 8000aa8:	ea85 2532 	eor.w	r5, r5, r2, ror #8
 8000aac:	6902      	ldr	r2, [r0, #16]
 8000aae:	090e      	lsrs	r6, r1, #4
 8000ab0:	010f      	lsls	r7, r1, #4
 8000ab2:	4059      	eors	r1, r3
 8000ab4:	f006 360f 	and.w	r6, r6, #252645135	@ 0xf0f0f0f
 8000ab8:	f007 37f0 	and.w	r7, r7, #4042322160	@ 0xf0f0f0f0
 8000abc:	433e      	orrs	r6, r7
 8000abe:	ea85 4536 	eor.w	r5, r5, r6, ror #16
 8000ac2:	0096      	lsls	r6, r2, #2
 8000ac4:	6145      	str	r5, [r0, #20]
 8000ac6:	0995      	lsrs	r5, r2, #6
 8000ac8:	f006 36fc 	and.w	r6, r6, #4244438268	@ 0xfcfcfcfc
 8000acc:	f005 3503 	and.w	r5, r5, #50529027	@ 0x3030303
 8000ad0:	4335      	orrs	r5, r6
 8000ad2:	ea82 2235 	eor.w	r2, r2, r5, ror #8
 8000ad6:	ea81 2135 	eor.w	r1, r1, r5, ror #8
 8000ada:	68c5      	ldr	r5, [r0, #12]
 8000adc:	0916      	lsrs	r6, r2, #4
 8000ade:	0117      	lsls	r7, r2, #4
 8000ae0:	405a      	eors	r2, r3
 8000ae2:	f006 360f 	and.w	r6, r6, #252645135	@ 0xf0f0f0f
 8000ae6:	f007 37f0 	and.w	r7, r7, #4042322160	@ 0xf0f0f0f0
 8000aea:	433e      	orrs	r6, r7
 8000aec:	ea81 4136 	eor.w	r1, r1, r6, ror #16
 8000af0:	00ae      	lsls	r6, r5, #2
 8000af2:	6101      	str	r1, [r0, #16]
 8000af4:	09a9      	lsrs	r1, r5, #6
 8000af6:	f006 36fc 	and.w	r6, r6, #4244438268	@ 0xfcfcfcfc
 8000afa:	f001 3103 	and.w	r1, r1, #50529027	@ 0x3030303
 8000afe:	4331      	orrs	r1, r6
 8000b00:	ea85 2531 	eor.w	r5, r5, r1, ror #8
 8000b04:	ea82 2231 	eor.w	r2, r2, r1, ror #8
 8000b08:	6881      	ldr	r1, [r0, #8]
 8000b0a:	092e      	lsrs	r6, r5, #4
 8000b0c:	012f      	lsls	r7, r5, #4
 8000b0e:	f006 360f 	and.w	r6, r6, #252645135	@ 0xf0f0f0f
 8000b12:	f007 37f0 	and.w	r7, r7, #4042322160	@ 0xf0f0f0f0
 8000b16:	433e      	orrs	r6, r7
 8000b18:	ea82 4236 	eor.w	r2, r2, r6, ror #16
 8000b1c:	008e      	lsls	r6, r1, #2
 8000b1e:	60c2      	str	r2, [r0, #12]
 8000b20:	098a      	lsrs	r2, r1, #6
 8000b22:	f006 36fc 	and.w	r6, r6, #4244438268	@ 0xfcfcfcfc
 8000b26:	f002 3203 	and.w	r2, r2, #50529027	@ 0x3030303
 8000b2a:	4332      	orrs	r2, r6
 8000b2c:	ea81 2132 	eor.w	r1, r1, r2, ror #8
 8000b30:	ea85 2532 	eor.w	r5, r5, r2, ror #8
 8000b34:	6842      	ldr	r2, [r0, #4]
 8000b36:	090e      	lsrs	r6, r1, #4
 8000b38:	010f      	lsls	r7, r1, #4
 8000b3a:	f006 360f 	and.w	r6, r6, #252645135	@ 0xf0f0f0f
 8000b3e:	f007 37f0 	and.w	r7, r7, #4042322160	@ 0xf0f0f0f0
 8000b42:	433e      	orrs	r6, r7
 8000b44:	ea85 4536 	eor.w	r5, r5, r6, ror #16
 8000b48:	0096      	lsls	r6, r2, #2
 8000b4a:	6085      	str	r5, [r0, #8]
 8000b4c:	0995      	lsrs	r5, r2, #6
 8000b4e:	f006 36fc 	and.w	r6, r6, #4244438268	@ 0xfcfcfcfc
 8000b52:	f005 3503 	and.w	r5, r5, #50529027	@ 0x3030303
 8000b56:	4335      	orrs	r5, r6
 8000b58:	ea82 2235 	eor.w	r2, r2, r5, ror #8
 8000b5c:	ea81 2135 	eor.w	r1, r1, r5, ror #8
 8000b60:	0916      	lsrs	r6, r2, #4
 8000b62:	0117      	lsls	r7, r2, #4
 8000b64:	f006 360f 	and.w	r6, r6, #252645135	@ 0xf0f0f0f
 8000b68:	ea82 2234 	eor.w	r2, r2, r4, ror #8
 8000b6c:	f007 37f0 	and.w	r7, r7, #4042322160	@ 0xf0f0f0f0
 8000b70:	433e      	orrs	r6, r7
 8000b72:	ea81 4136 	eor.w	r1, r1, r6, ror #16
 8000b76:	6041      	str	r1, [r0, #4]
 8000b78:	0919      	lsrs	r1, r3, #4
 8000b7a:	011b      	lsls	r3, r3, #4
 8000b7c:	f001 310f 	and.w	r1, r1, #252645135	@ 0xf0f0f0f
 8000b80:	f003 33f0 	and.w	r3, r3, #4042322160	@ 0xf0f0f0f0
 8000b84:	430b      	orrs	r3, r1
 8000b86:	ea82 4233 	eor.w	r2, r2, r3, ror #16
 8000b8a:	6002      	str	r2, [r0, #0]
 8000b8c:	bdf0      	pop	{r4, r5, r6, r7, pc}

08000b8e <mixcolumns_1>:
 8000b8e:	6801      	ldr	r1, [r0, #0]
 8000b90:	b570      	push	{r4, r5, r6, lr}
 8000b92:	010b      	lsls	r3, r1, #4
 8000b94:	69c5      	ldr	r5, [r0, #28]
 8000b96:	090c      	lsrs	r4, r1, #4
 8000b98:	6986      	ldr	r6, [r0, #24]
 8000b9a:	f003 33f0 	and.w	r3, r3, #4042322160	@ 0xf0f0f0f0
 8000b9e:	012a      	lsls	r2, r5, #4
 8000ba0:	f004 340f 	and.w	r4, r4, #252645135	@ 0xf0f0f0f
 8000ba4:	f002 32f0 	and.w	r2, r2, #4042322160	@ 0xf0f0f0f0
 8000ba8:	431c      	orrs	r4, r3
 8000baa:	092b      	lsrs	r3, r5, #4
 8000bac:	f003 330f 	and.w	r3, r3, #252645135	@ 0xf0f0f0f
 8000bb0:	ea81 2134 	eor.w	r1, r1, r4, ror #8
 8000bb4:	4313      	orrs	r3, r2
 8000bb6:	ea85 2333 	eor.w	r3, r5, r3, ror #8
 8000bba:	ea81 0203 	eor.w	r2, r1, r3
 8000bbe:	ea82 4333 	eor.w	r3, r2, r3, ror #16
 8000bc2:	406b      	eors	r3, r5
 8000bc4:	0935      	lsrs	r5, r6, #4
 8000bc6:	61c3      	str	r3, [r0, #28]
 8000bc8:	0133      	lsls	r3, r6, #4
 8000bca:	f005 350f 	and.w	r5, r5, #252645135	@ 0xf0f0f0f
 8000bce:	f003 33f0 	and.w	r3, r3, #4042322160	@ 0xf0f0f0f0
 8000bd2:	431d      	orrs	r5, r3
 8000bd4:	ea86 2335 	eor.w	r3, r6, r5, ror #8
 8000bd8:	ea82 4233 	eor.w	r2, r2, r3, ror #16
 8000bdc:	ea82 2235 	eor.w	r2, r2, r5, ror #8
 8000be0:	6182      	str	r2, [r0, #24]
 8000be2:	6942      	ldr	r2, [r0, #20]
 8000be4:	0915      	lsrs	r5, r2, #4
 8000be6:	0116      	lsls	r6, r2, #4
 8000be8:	f005 350f 	and.w	r5, r5, #252645135	@ 0xf0f0f0f
 8000bec:	f006 36f0 	and.w	r6, r6, #4042322160	@ 0xf0f0f0f0
 8000bf0:	4335      	orrs	r5, r6
 8000bf2:	ea82 2235 	eor.w	r2, r2, r5, ror #8
 8000bf6:	ea83 2335 	eor.w	r3, r3, r5, ror #8
 8000bfa:	ea83 4332 	eor.w	r3, r3, r2, ror #16
 8000bfe:	404a      	eors	r2, r1
 8000c00:	6143      	str	r3, [r0, #20]
 8000c02:	6903      	ldr	r3, [r0, #16]
 8000c04:	091d      	lsrs	r5, r3, #4
 8000c06:	011e      	lsls	r6, r3, #4
 8000c08:	f005 350f 	and.w	r5, r5, #252645135	@ 0xf0f0f0f
 8000c0c:	f006 36f0 	and.w	r6, r6, #4042322160	@ 0xf0f0f0f0
 8000c10:	4335      	orrs	r5, r6
 8000c12:	ea83 2335 	eor.w	r3, r3, r5, ror #8
 8000c16:	ea82 2235 	eor.w	r2, r2, r5, ror #8
 8000c1a:	68c5      	ldr	r5, [r0, #12]
 8000c1c:	ea82 4233 	eor.w	r2, r2, r3, ror #16
 8000c20:	404b      	eors	r3, r1
 8000c22:	012e      	lsls	r6, r5, #4
 8000c24:	6102      	str	r2, [r0, #16]
 8000c26:	092a      	lsrs	r2, r5, #4
 8000c28:	f006 36f0 	and.w	r6, r6, #4042322160	@ 0xf0f0f0f0
 8000c2c:	f002 320f 	and.w	r2, r2, #252645135	@ 0xf0f0f0f
 8000c30:	4332      	orrs	r2, r6
 8000c32:	ea85 2532 	eor.w	r5, r5, r2, ror #8
 8000c36:	ea83 2332 	eor.w	r3, r3, r2, ror #8
 8000c3a:	6882      	ldr	r2, [r0, #8]
 8000c3c:	ea83 4335 	eor.w	r3, r3, r5, ror #16
 8000c40:	0116      	lsls	r6, r2, #4
 8000c42:	60c3      	str	r3, [r0, #12]
 8000c44:	0913      	lsrs	r3, r2, #4
 8000c46:	f006 36f0 	and.w	r6, r6, #4042322160	@ 0xf0f0f0f0
 8000c4a:	f003 330f 	and.w	r3, r3, #252645135	@ 0xf0f0f0f
 8000c4e:	4333      	orrs	r3, r6
 8000c50:	ea82 2233 	eor.w	r2, r2, r3, ror #8
 8000c54:	ea85 2533 	eor.w	r5, r5, r3, ror #8
 8000c58:	6843      	ldr	r3, [r0, #4]
 8000c5a:	ea85 4532 	eor.w	r5, r5, r2, ror #16
 8000c5e:	011e      	lsls	r6, r3, #4
 8000c60:	6085      	str	r5, [r0, #8]
 8000c62:	091d      	lsrs	r5, r3, #4
 8000c64:	f006 36f0 	and.w	r6, r6, #4042322160	@ 0xf0f0f0f0
 8000c68:	f005 350f 	and.w	r5, r5, #252645135	@ 0xf0f0f0f
 8000c6c:	4335      	orrs	r5, r6
 8000c6e:	ea83 2335 	eor.w	r3, r3, r5, ror #8
 8000c72:	ea82 2235 	eor.w	r2, r2, r5, ror #8
 8000c76:	ea82 4233 	eor.w	r2, r2, r3, ror #16
 8000c7a:	ea83 2334 	eor.w	r3, r3, r4, ror #8
 8000c7e:	6042      	str	r2, [r0, #4]
 8000c80:	ea83 4331 	eor.w	r3, r3, r1, ror #16
 8000c84:	6003      	str	r3, [r0, #0]
 8000c86:	bd70      	pop	{r4, r5, r6, pc}

08000c88 <mixcolumns_2>:
 8000c88:	6803      	ldr	r3, [r0, #0]
 8000c8a:	b5f0      	push	{r4, r5, r6, r7, lr}
 8000c8c:	019a      	lsls	r2, r3, #6
 8000c8e:	089c      	lsrs	r4, r3, #2
 8000c90:	f002 32c0 	and.w	r2, r2, #3233857728	@ 0xc0c0c0c0
 8000c94:	f004 343f 	and.w	r4, r4, #1061109567	@ 0x3f3f3f3f
 8000c98:	4314      	orrs	r4, r2
 8000c9a:	69c2      	ldr	r2, [r0, #28]
 8000c9c:	0891      	lsrs	r1, r2, #2
 8000c9e:	0195      	lsls	r5, r2, #6
 8000ca0:	f001 313f 	and.w	r1, r1, #1061109567	@ 0x3f3f3f3f
 8000ca4:	ea83 2334 	eor.w	r3, r3, r4, ror #8
 8000ca8:	f005 35c0 	and.w	r5, r5, #3233857728	@ 0xc0c0c0c0
 8000cac:	4329      	orrs	r1, r5
 8000cae:	ea82 2231 	eor.w	r2, r2, r1, ror #8
 8000cb2:	ea83 2131 	eor.w	r1, r3, r1, ror #8
 8000cb6:	0915      	lsrs	r5, r2, #4
 8000cb8:	0116      	lsls	r6, r2, #4
 8000cba:	405a      	eors	r2, r3
 8000cbc:	f005 350f 	and.w	r5, r5, #252645135	@ 0xf0f0f0f
 8000cc0:	f006 36f0 	and.w	r6, r6, #4042322160	@ 0xf0f0f0f0
 8000cc4:	4335      	orrs	r5, r6
 8000cc6:	ea81 4135 	eor.w	r1, r1, r5, ror #16
 8000cca:	6985      	ldr	r5, [r0, #24]
 8000ccc:	61c1      	str	r1, [r0, #28]
 8000cce:	01ae      	lsls	r6, r5, #6
 8000cd0:	08a9      	lsrs	r1, r5, #2
 8000cd2:	f006 36c0 	and.w	r6, r6, #3233857728	@ 0xc0c0c0c0
 8000cd6:	f001 313f 	and.w	r1, r1, #1061109567	@ 0x3f3f3f3f
 8000cda:	4331      	orrs	r1, r6
 8000cdc:	ea85 2531 	eor.w	r5, r5, r1, ror #8
 8000ce0:	ea82 2231 	eor.w	r2, r2, r1, ror #8
 8000ce4:	6941      	ldr	r1, [r0, #20]
 8000ce6:	092e      	lsrs	r6, r5, #4
 8000ce8:	012f      	lsls	r7, r5, #4
 8000cea:	f006 360f 	and.w	r6, r6, #252645135	@ 0xf0f0f0f
 8000cee:	f007 37f0 	and.w	r7, r7, #4042322160	@ 0xf0f0f0f0
 8000cf2:	433e      	orrs	r6, r7
 8000cf4:	ea82 4236 	eor.w	r2, r2, r6, ror #16
 8000cf8:	018e      	lsls	r6, r1, #6
 8000cfa:	6182      	str	r2, [r0, #24]
 8000cfc:	088a      	lsrs	r2, r1, #2
 8000cfe:	f006 36c0 	and.w	r6, r6, #3233857728	@ 0xc0c0c0c0
 8000d02:	f002 323f 	and.w	r2, r2, #1061109567	@ 0x3f3f3f3f
 8000d06:	4332      	orrs	r2, r6
 8000d08:	ea81 2132 	eor.w	r1, r1, r2, ror #8
 8000d0c:	ea85 2532 	eor.w	r5, r5, r2, ror #8
 8000d10:	6902      	ldr	r2, [r0, #16]
 8000d12:	090e      	lsrs	r6, r1, #4
 8000d14:	010f      	lsls	r7, r1, #4
 8000d16:	4059      	eors	r1, r3
 8000d18:	f006 360f 	and.w	r6, r6, #252645135	@ 0xf0f0f0f
 8000d1c:	f007 37f0 	and.w	r7, r7, #4042322160	@ 0xf0f0f0f0
 8000d20:	433e      	orrs	r6, r7
 8000d22:	ea85 4536 	eor.w	r5, r5, r6, ror #16
 8000d26:	0196      	lsls	r6, r2, #6
 8000d28:	6145      	str	r5, [r0, #20]
 8000d2a:	0895      	lsrs	r5, r2, #2
 8000d2c:	f006 36c0 	and.w	r6, r6, #3233857728	@ 0xc0c0c0c0
 8000d30:	f005 353f 	and.w	r5, r5, #1061109567	@ 0x3f3f3f3f
 8000d34:	4335      	orrs	r5, r6
 8000d36:	ea82 2235 	eor.w	r2, r2, r5, ror #8
 8000d3a:	ea81 2135 	eor.w	r1, r1, r5, ror #8
 8000d3e:	68c5      	ldr	r5, [r0, #12]
 8000d40:	0916      	lsrs	r6, r2, #4
 8000d42:	0117      	lsls	r7, r2, #4
 8000d44:	405a      	eors	r2, r3
 8000d46:	f006 360f 	and.w	r6, r6, #252645135	@ 0xf0f0f0f
 8000d4a:	f007 37f0 	and.w	r7, r7, #4042322160	@ 0xf0f0f0f0
 8000d4e:	433e      	orrs	r6, r7
 8000d50:	ea81 4136 	eor.w	r1, r1, r6, ror #16
 8000d54:	01ae      	lsls	r6, r5, #6
 8000d56:	6101      	str	r1, [r0, #16]
 8000d58:	08a9      	lsrs	r1, r5, #2
 8000d5a:	f006 36c0 	and.w	r6, r6, #3233857728	@ 0xc0c0c0c0
 8000d5e:	f001 313f 	and.w	r1, r1, #1061109567	@ 0x3f3f3f3f
 8000d62:	4331      	orrs	r1, r6
 8000d64:	ea85 2531 	eor.w	r5, r5, r1, ror #8
 8000d68:	ea82 2231 	eor.w	r2, r2, r1, ror #8
 8000d6c:	6881      	ldr	r1, [r0, #8]
 8000d6e:	092e      	lsrs	r6, r5, #4
 8000d70:	012f      	lsls	r7, r5, #4
 8000d72:	f006 360f 	and.w	r6, r6, #252645135	@ 0xf0f0f0f
 8000d76:	f007 37f0 	and.w	r7, r7, #4042322160	@ 0xf0f0f0f0
 8000d7a:	433e      	orrs	r6, r7
 8000d7c:	ea82 4236 	eor.w	r2, r2, r6, ror #16
 8000d80:	018e      	lsls	r6, r1, #6
 8000d82:	60c2      	str	r2, [r0, #12]
 8000d84:	088a      	lsrs	r2, r1, #2
 8000d86:	f006 36c0 	and.w	r6, r6, #3233857728	@ 0xc0c0c0c0
 8000d8a:	f002 323f 	and.w	r2, r2, #1061109567	@ 0x3f3f3f3f
 8000d8e:	4332      	orrs	r2, r6
 8000d90:	ea81 2132 	eor.w	r1, r1, r2, ror #8
 8000d94:	ea85 2532 	eor.w	r5, r5, r2, ror #8
 8000d98:	6842      	ldr	r2, [r0, #4]
 8000d9a:	090e      	lsrs	r6, r1, #4
 8000d9c:	010f      	lsls	r7, r1, #4
 8000d9e:	f006 360f 	and.w	r6, r6, #252645135	@ 0xf0f0f0f
 8000da2:	f007 37f0 	and.w	r7, r7, #4042322160	@ 0xf0f0f0f0
 8000da6:	433e      	orrs	r6, r7
 8000da8:	ea85 4536 	eor.w	r5, r5, r6, ror #16
 8000dac:	0196      	lsls	r6, r2, #6
 8000dae:	6085      	str	r5, [r0, #8]
 8000db0:	0895      	lsrs	r5, r2, #2
 8000db2:	f006 36c0 	and.w	r6, r6, #3233857728	@ 0xc0c0c0c0
 8000db6:	f005 353f 	and.w	r5, r5, #1061109567	@ 0x3f3f3f3f
 8000dba:	4335      	orrs	r5, r6
 8000dbc:	ea82 2235 	eor.w	r2, r2, r5, ror #8
 8000dc0:	ea81 2135 	eor.w	r1, r1, r5, ror #8
 8000dc4:	0916      	lsrs	r6, r2, #4
 8000dc6:	0117      	lsls	r7, r2, #4
 8000dc8:	f006 360f 	and.w	r6, r6, #252645135	@ 0xf0f0f0f
 8000dcc:	ea82 2234 	eor.w	r2, r2, r4, ror #8
 8000dd0:	f007 37f0 	and.w	r7, r7, #4042322160	@ 0xf0f0f0f0
 8000dd4:	433e      	orrs	r6, r7
 8000dd6:	ea81 4136 	eor.w	r1, r1, r6, ror #16
 8000dda:	6041      	str	r1, [r0, #4]
 8000ddc:	0919      	lsrs	r1, r3, #4
 8000dde:	011b      	lsls	r3, r3, #4
 8000de0:	f001 310f 	and.w	r1, r1, #252645135	@ 0xf0f0f0f
 8000de4:	f003 33f0 	and.w	r3, r3, #4042322160	@ 0xf0f0f0f0
 8000de8:	430b      	orrs	r3, r1
 8000dea:	ea82 4233 	eor.w	r2, r2, r3, ror #16
 8000dee:	6002      	str	r2, [r0, #0]
 8000df0:	bdf0      	pop	{r4, r5, r6, r7, pc}

08000df2 <mixcolumns_3>:
 8000df2:	b530      	push	{r4, r5, lr}
 8000df4:	6804      	ldr	r4, [r0, #0]
 8000df6:	69c2      	ldr	r2, [r0, #28]
 8000df8:	ea84 2134 	eor.w	r1, r4, r4, ror #8
 8000dfc:	ea82 2332 	eor.w	r3, r2, r2, ror #8
 8000e00:	ea81 2232 	eor.w	r2, r1, r2, ror #8
 8000e04:	ea82 4233 	eor.w	r2, r2, r3, ror #16
 8000e08:	404b      	eors	r3, r1
 8000e0a:	61c2      	str	r2, [r0, #28]
 8000e0c:	6982      	ldr	r2, [r0, #24]
 8000e0e:	ea82 2532 	eor.w	r5, r2, r2, ror #8
 8000e12:	ea83 2332 	eor.w	r3, r3, r2, ror #8
 8000e16:	ea83 4335 	eor.w	r3, r3, r5, ror #16
 8000e1a:	6183      	str	r3, [r0, #24]
 8000e1c:	6943      	ldr	r3, [r0, #20]
 8000e1e:	ea83 2233 	eor.w	r2, r3, r3, ror #8
 8000e22:	ea85 2533 	eor.w	r5, r5, r3, ror #8
 8000e26:	ea85 4532 	eor.w	r5, r5, r2, ror #16
 8000e2a:	404a      	eors	r2, r1
 8000e2c:	6145      	str	r5, [r0, #20]
 8000e2e:	6905      	ldr	r5, [r0, #16]
 8000e30:	ea85 2335 	eor.w	r3, r5, r5, ror #8
 8000e34:	ea82 2235 	eor.w	r2, r2, r5, ror #8
 8000e38:	ea82 4233 	eor.w	r2, r2, r3, ror #16
 8000e3c:	404b      	eors	r3, r1
 8000e3e:	6102      	str	r2, [r0, #16]
 8000e40:	68c2      	ldr	r2, [r0, #12]
 8000e42:	ea82 2532 	eor.w	r5, r2, r2, ror #8
 8000e46:	ea83 2332 	eor.w	r3, r3, r2, ror #8
 8000e4a:	ea83 4335 	eor.w	r3, r3, r5, ror #16
 8000e4e:	60c3      	str	r3, [r0, #12]
 8000e50:	6883      	ldr	r3, [r0, #8]
 8000e52:	ea83 2233 	eor.w	r2, r3, r3, ror #8
 8000e56:	ea85 2533 	eor.w	r5, r5, r3, ror #8
 8000e5a:	ea85 4532 	eor.w	r5, r5, r2, ror #16
 8000e5e:	6085      	str	r5, [r0, #8]
 8000e60:	6845      	ldr	r5, [r0, #4]
 8000e62:	ea85 2335 	eor.w	r3, r5, r5, ror #8
 8000e66:	ea82 2235 	eor.w	r2, r2, r5, ror #8
 8000e6a:	ea82 4233 	eor.w	r2, r2, r3, ror #16
 8000e6e:	ea83 2334 	eor.w	r3, r3, r4, ror #8
 8000e72:	6042      	str	r2, [r0, #4]
 8000e74:	ea83 4331 	eor.w	r3, r3, r1, ror #16
 8000e78:	6003      	str	r3, [r0, #0]
 8000e7a:	bd30      	pop	{r4, r5, pc}

08000e7c <packing>:
 8000e7c:	e92d 41f0 	stmdb	sp!, {r4, r5, r6, r7, r8, lr}
 8000e80:	680e      	ldr	r6, [r1, #0]
 8000e82:	6006      	str	r6, [r0, #0]
 8000e84:	f8d2 e000 	ldr.w	lr, [r2]
 8000e88:	f8c0 e004 	str.w	lr, [r0, #4]
 8000e8c:	684d      	ldr	r5, [r1, #4]
 8000e8e:	6085      	str	r5, [r0, #8]
 8000e90:	6853      	ldr	r3, [r2, #4]
 8000e92:	60c3      	str	r3, [r0, #12]
 8000e94:	688c      	ldr	r4, [r1, #8]
 8000e96:	6104      	str	r4, [r0, #16]
 8000e98:	6897      	ldr	r7, [r2, #8]
 8000e9a:	6147      	str	r7, [r0, #20]
 8000e9c:	f8d1 800c 	ldr.w	r8, [r1, #12]
 8000ea0:	f8c0 8018 	str.w	r8, [r0, #24]
 8000ea4:	f8d2 c00c 	ldr.w	ip, [r2, #12]
 8000ea8:	ea86 025e 	eor.w	r2, r6, lr, lsr #1
 8000eac:	f002 3255 	and.w	r2, r2, #1431655765	@ 0x55555555
 8000eb0:	ea8e 0142 	eor.w	r1, lr, r2, lsl #1
 8000eb4:	4056      	eors	r6, r2
 8000eb6:	ea84 0e57 	eor.w	lr, r4, r7, lsr #1
 8000eba:	ea85 0253 	eor.w	r2, r5, r3, lsr #1
 8000ebe:	f00e 3e55 	and.w	lr, lr, #1431655765	@ 0x55555555
 8000ec2:	f002 3255 	and.w	r2, r2, #1431655765	@ 0x55555555
 8000ec6:	ea84 040e 	eor.w	r4, r4, lr
 8000eca:	ea87 074e 	eor.w	r7, r7, lr, lsl #1
 8000ece:	ea88 0e5c 	eor.w	lr, r8, ip, lsr #1
 8000ed2:	4055      	eors	r5, r2
 8000ed4:	ea83 0342 	eor.w	r3, r3, r2, lsl #1
 8000ed8:	f00e 3e55 	and.w	lr, lr, #1431655765	@ 0x55555555
 8000edc:	ea88 020e 	eor.w	r2, r8, lr
 8000ee0:	ea8c 0c4e 	eor.w	ip, ip, lr, lsl #1
 8000ee4:	ea86 0e95 	eor.w	lr, r6, r5, lsr #2
 8000ee8:	f00e 3e33 	and.w	lr, lr, #858993459	@ 0x33333333
 8000eec:	ea86 060e 	eor.w	r6, r6, lr
 8000ef0:	ea85 058e 	eor.w	r5, r5, lr, lsl #2
 8000ef4:	ea81 0e93 	eor.w	lr, r1, r3, lsr #2
 8000ef8:	f00e 3e33 	and.w	lr, lr, #858993459	@ 0x33333333
 8000efc:	ea81 010e 	eor.w	r1, r1, lr
 8000f00:	ea83 038e 	eor.w	r3, r3, lr, lsl #2
 8000f04:	ea84 0e92 	eor.w	lr, r4, r2, lsr #2
 8000f08:	f00e 3e33 	and.w	lr, lr, #858993459	@ 0x33333333
 8000f0c:	ea84 040e 	eor.w	r4, r4, lr
 8000f10:	ea82 028e 	eor.w	r2, r2, lr, lsl #2
 8000f14:	ea87 0e9c 	eor.w	lr, r7, ip, lsr #2
 8000f18:	f00e 3e33 	and.w	lr, lr, #858993459	@ 0x33333333
 8000f1c:	ea87 070e 	eor.w	r7, r7, lr
 8000f20:	ea8c 0c8e 	eor.w	ip, ip, lr, lsl #2
 8000f24:	ea86 1e14 	eor.w	lr, r6, r4, lsr #4
 8000f28:	f00e 3e0f 	and.w	lr, lr, #252645135	@ 0xf0f0f0f
 8000f2c:	ea84 140e 	eor.w	r4, r4, lr, lsl #4
 8000f30:	ea86 060e 	eor.w	r6, r6, lr
 8000f34:	6104      	str	r4, [r0, #16]
 8000f36:	ea81 1417 	eor.w	r4, r1, r7, lsr #4
 8000f3a:	6006      	str	r6, [r0, #0]
 8000f3c:	f004 340f 	and.w	r4, r4, #252645135	@ 0xf0f0f0f
 8000f40:	4061      	eors	r1, r4
 8000f42:	ea87 1704 	eor.w	r7, r7, r4, lsl #4
 8000f46:	6041      	str	r1, [r0, #4]
 8000f48:	ea85 1112 	eor.w	r1, r5, r2, lsr #4
 8000f4c:	6147      	str	r7, [r0, #20]
 8000f4e:	f001 310f 	and.w	r1, r1, #252645135	@ 0xf0f0f0f
 8000f52:	ea82 1201 	eor.w	r2, r2, r1, lsl #4
 8000f56:	404d      	eors	r5, r1
 8000f58:	6182      	str	r2, [r0, #24]
 8000f5a:	ea83 121c 	eor.w	r2, r3, ip, lsr #4
 8000f5e:	6085      	str	r5, [r0, #8]
 8000f60:	f002 320f 	and.w	r2, r2, #252645135	@ 0xf0f0f0f
 8000f64:	4053      	eors	r3, r2
 8000f66:	ea8c 1202 	eor.w	r2, ip, r2, lsl #4
 8000f6a:	60c3      	str	r3, [r0, #12]
 8000f6c:	61c2      	str	r2, [r0, #28]
 8000f6e:	e8bd 81f0 	ldmia.w	sp!, {r4, r5, r6, r7, r8, pc}

08000f72 <sbox>:
 8000f72:	e92d 4ff0 	stmdb	sp!, {r4, r5, r6, r7, r8, r9, sl, fp, lr}
 8000f76:	6943      	ldr	r3, [r0, #20]
 8000f78:	b08f      	sub	sp, #60	@ 0x3c
 8000f7a:	6804      	ldr	r4, [r0, #0]
 8000f7c:	68c5      	ldr	r5, [r0, #12]
 8000f7e:	f8d0 a018 	ldr.w	sl, [r0, #24]
 8000f82:	ea85 0203 	eor.w	r2, r5, r3
 8000f86:	6901      	ldr	r1, [r0, #16]
 8000f88:	ea84 090a 	eor.w	r9, r4, sl
 8000f8c:	ea85 0604 	eor.w	r6, r5, r4
 8000f90:	9203      	str	r2, [sp, #12]
 8000f92:	ea82 0209 	eor.w	r2, r2, r9
 8000f96:	9605      	str	r6, [sp, #20]
 8000f98:	4051      	eors	r1, r2
 8000f9a:	9204      	str	r2, [sp, #16]
 8000f9c:	ea83 0e01 	eor.w	lr, r3, r1
 8000fa0:	4063      	eors	r3, r4
 8000fa2:	ea02 0c0e 	and.w	ip, r2, lr
 8000fa6:	69c2      	ldr	r2, [r0, #28]
 8000fa8:	9301      	str	r3, [sp, #4]
 8000faa:	ea82 020e 	eor.w	r2, r2, lr
 8000fae:	6883      	ldr	r3, [r0, #8]
 8000fb0:	920a      	str	r2, [sp, #40]	@ 0x28
 8000fb2:	6842      	ldr	r2, [r0, #4]
 8000fb4:	4051      	eors	r1, r2
 8000fb6:	405a      	eors	r2, r3
 8000fb8:	404e      	eors	r6, r1
 8000fba:	ea8e 0302 	eor.w	r3, lr, r2
 8000fbe:	9600      	str	r6, [sp, #0]
 8000fc0:	9e05      	ldr	r6, [sp, #20]
 8000fc2:	9f00      	ldr	r7, [sp, #0]
 8000fc4:	ea26 0801 	bic.w	r8, r6, r1
 8000fc8:	69c6      	ldr	r6, [r0, #28]
 8000fca:	9302      	str	r3, [sp, #8]
 8000fcc:	463b      	mov	r3, r7
 8000fce:	407e      	eors	r6, r7
 8000fd0:	960b      	str	r6, [sp, #44]	@ 0x2c
 8000fd2:	9e02      	ldr	r6, [sp, #8]
 8000fd4:	4073      	eors	r3, r6
 8000fd6:	930c      	str	r3, [sp, #48]	@ 0x30
 8000fd8:	9e0c      	ldr	r6, [sp, #48]	@ 0x30
 8000fda:	9b03      	ldr	r3, [sp, #12]
 8000fdc:	ea03 0706 	and.w	r7, r3, r6
 8000fe0:	ea87 0308 	eor.w	r3, r7, r8
 8000fe4:	9309      	str	r3, [sp, #36]	@ 0x24
 8000fe6:	e9dd 3601 	ldrd	r3, r6, [sp, #4]
 8000fea:	401e      	ands	r6, r3
 8000fec:	9b00      	ldr	r3, [sp, #0]
 8000fee:	ea83 0b02 	eor.w	fp, r3, r2
 8000ff2:	69c3      	ldr	r3, [r0, #28]
 8000ff4:	ea86 0608 	eor.w	r6, r6, r8
 8000ff8:	405a      	eors	r2, r3
 8000ffa:	ea0b 0809 	and.w	r8, fp, r9
 8000ffe:	ea85 0302 	eor.w	r3, r5, r2
 8001002:	9306      	str	r3, [sp, #24]
 8001004:	9d06      	ldr	r5, [sp, #24]
 8001006:	69c3      	ldr	r3, [r0, #28]
 8001008:	401d      	ands	r5, r3
 800100a:	9b01      	ldr	r3, [sp, #4]
 800100c:	9f01      	ldr	r7, [sp, #4]
 800100e:	405d      	eors	r5, r3
 8001010:	9b02      	ldr	r3, [sp, #8]
 8001012:	ea85 050c 	eor.w	r5, r5, ip
 8001016:	ea8c 0c01 	eor.w	ip, ip, r1
 800101a:	990a      	ldr	r1, [sp, #40]	@ 0x28
 800101c:	405d      	eors	r5, r3
 800101e:	ea84 0302 	eor.w	r3, r4, r2
 8001022:	ea84 040b 	eor.w	r4, r4, fp
 8001026:	4075      	eors	r5, r6
 8001028:	9307      	str	r3, [sp, #28]
 800102a:	4074      	eors	r4, r6
 800102c:	9e0b      	ldr	r6, [sp, #44]	@ 0x2c
 800102e:	ea84 0408 	eor.w	r4, r4, r8
 8001032:	4033      	ands	r3, r6
 8001034:	9e09      	ldr	r6, [sp, #36]	@ 0x24
 8001036:	405c      	eors	r4, r3
 8001038:	ea8a 0302 	eor.w	r3, sl, r2
 800103c:	9308      	str	r3, [sp, #32]
 800103e:	ea22 030a 	bic.w	r3, r2, sl
 8001042:	ea83 0309 	eor.w	r3, r3, r9
 8001046:	ea83 030b 	eor.w	r3, r3, fp
 800104a:	ea83 0308 	eor.w	r3, r3, r8
 800104e:	4073      	eors	r3, r6
 8001050:	9e08      	ldr	r6, [sp, #32]
 8001052:	407e      	eors	r6, r7
 8001054:	4031      	ands	r1, r6
 8001056:	ea81 0c0c 	eor.w	ip, r1, ip
 800105a:	9909      	ldr	r1, [sp, #36]	@ 0x24
 800105c:	ea81 0c0c 	eor.w	ip, r1, ip
 8001060:	ea03 080c 	and.w	r8, r3, ip
 8001064:	ea85 0c0c 	eor.w	ip, r5, ip
 8001068:	ea84 0108 	eor.w	r1, r4, r8
 800106c:	ea85 0a08 	eor.w	sl, r5, r8
 8001070:	ea01 070c 	and.w	r7, r1, ip
 8001074:	406f      	eors	r7, r5
 8001076:	ea84 0503 	eor.w	r5, r4, r3
 800107a:	ea05 050a 	and.w	r5, r5, sl
 800107e:	ea88 0805 	eor.w	r8, r8, r5
 8001082:	ea84 0a05 	eor.w	sl, r4, r5
 8001086:	ea08 0804 	and.w	r8, r8, r4
 800108a:	ea83 030a 	eor.w	r3, r3, sl
 800108e:	ea88 0101 	eor.w	r1, r8, r1
 8001092:	ea83 0308 	eor.w	r3, r3, r8
 8001096:	4039      	ands	r1, r7
 8001098:	ea83 080a 	eor.w	r8, r3, sl
 800109c:	401e      	ands	r6, r3
 800109e:	ea81 010c 	eor.w	r1, r1, ip
 80010a2:	ea0e 0e08 	and.w	lr, lr, r8
 80010a6:	ea87 0401 	eor.w	r4, r7, r1
 80010aa:	400a      	ands	r2, r1
 80010ac:	ea0b 0504 	and.w	r5, fp, r4
 80010b0:	ea09 0404 	and.w	r4, r9, r4
 80010b4:	ea83 0b01 	eor.w	fp, r3, r1
 80010b8:	ea87 090a 	eor.w	r9, r7, sl
 80010bc:	940d      	str	r4, [sp, #52]	@ 0x34
 80010be:	406a      	eors	r2, r5
 80010c0:	9c04      	ldr	r4, [sp, #16]
 80010c2:	9509      	str	r5, [sp, #36]	@ 0x24
 80010c4:	ea8b 0509 	eor.w	r5, fp, r9
 80010c8:	ea04 0808 	and.w	r8, r4, r8
 80010cc:	9c0c      	ldr	r4, [sp, #48]	@ 0x30
 80010ce:	ea05 0c04 	and.w	ip, r5, r4
 80010d2:	9c03      	ldr	r4, [sp, #12]
 80010d4:	4025      	ands	r5, r4
 80010d6:	9c00      	ldr	r4, [sp, #0]
 80010d8:	ea8c 0c02 	eor.w	ip, ip, r2
 80010dc:	ea09 0404 	and.w	r4, r9, r4
 80010e0:	ea84 040c 	eor.w	r4, r4, ip
 80010e4:	9400      	str	r4, [sp, #0]
 80010e6:	9c05      	ldr	r4, [sp, #20]
 80010e8:	ea09 0904 	and.w	r9, r9, r4
 80010ec:	9c00      	ldr	r4, [sp, #0]
 80010ee:	ea89 0505 	eor.w	r5, r9, r5
 80010f2:	406e      	eors	r6, r5
 80010f4:	ea86 0808 	eor.w	r8, r6, r8
 80010f8:	ea84 0408 	eor.w	r4, r4, r8
 80010fc:	6004      	str	r4, [r0, #0]
 80010fe:	9c0a      	ldr	r4, [sp, #40]	@ 0x28
 8001100:	4023      	ands	r3, r4
 8001102:	9c0d      	ldr	r4, [sp, #52]	@ 0x34
 8001104:	ea83 030e 	eor.w	r3, r3, lr
 8001108:	4053      	eors	r3, r2
 800110a:	9a00      	ldr	r2, [sp, #0]
 800110c:	ea83 0308 	eor.w	r3, r3, r8
 8001110:	405a      	eors	r2, r3
 8001112:	60c3      	str	r3, [r0, #12]
 8001114:	6042      	str	r2, [r0, #4]
 8001116:	69c2      	ldr	r2, [r0, #28]
 8001118:	ea02 020a 	and.w	r2, r2, sl
 800111c:	ea82 0e0e 	eor.w	lr, r2, lr
 8001120:	9a0b      	ldr	r2, [sp, #44]	@ 0x2c
 8001122:	ea07 0802 	and.w	r8, r7, r2
 8001126:	9a02      	ldr	r2, [sp, #8]
 8001128:	ea0b 0202 	and.w	r2, fp, r2
 800112c:	ea88 080e 	eor.w	r8, r8, lr
 8001130:	4062      	eors	r2, r4
 8001132:	9c07      	ldr	r4, [sp, #28]
 8001134:	ea82 020e 	eor.w	r2, r2, lr
 8001138:	4027      	ands	r7, r4
 800113a:	9c06      	ldr	r4, [sp, #24]
 800113c:	ea82 020c 	eor.w	r2, r2, ip
 8001140:	ea04 0c0a 	and.w	ip, r4, sl
 8001144:	9c01      	ldr	r4, [sp, #4]
 8001146:	4057      	eors	r7, r2
 8001148:	ea8c 0c06 	eor.w	ip, ip, r6
 800114c:	ea8c 0607 	eor.w	r6, ip, r7
 8001150:	6146      	str	r6, [r0, #20]
 8001152:	ea0b 0604 	and.w	r6, fp, r4
 8001156:	9c00      	ldr	r4, [sp, #0]
 8001158:	ea86 0609 	eor.w	r6, r6, r9
 800115c:	4074      	eors	r4, r6
 800115e:	9e08      	ldr	r6, [sp, #32]
 8001160:	407c      	eors	r4, r7
 8001162:	4031      	ands	r1, r6
 8001164:	6084      	str	r4, [r0, #8]
 8001166:	9c09      	ldr	r4, [sp, #36]	@ 0x24
 8001168:	ea84 0408 	eor.w	r4, r4, r8
 800116c:	4061      	eors	r1, r4
 800116e:	4063      	eors	r3, r4
 8001170:	4069      	eors	r1, r5
 8001172:	6103      	str	r3, [r0, #16]
 8001174:	404a      	eors	r2, r1
 8001176:	6182      	str	r2, [r0, #24]
 8001178:	9a0d      	ldr	r2, [sp, #52]	@ 0x34
 800117a:	4051      	eors	r1, r2
 800117c:	61c1      	str	r1, [r0, #28]
 800117e:	b00f      	add	sp, #60	@ 0x3c
 8001180:	e8bd 8ff0 	ldmia.w	sp!, {r4, r5, r6, r7, r8, r9, sl, fp, pc}

08001184 <aes128_encrypt_ffs>:
 8001184:	b570      	push	{r4, r5, r6, lr}
 8001186:	b088      	sub	sp, #32
 8001188:	4605      	mov	r5, r0
 800118a:	460e      	mov	r6, r1
 800118c:	4611      	mov	r1, r2
 800118e:	9c0c      	ldr	r4, [sp, #48]	@ 0x30
 8001190:	461a      	mov	r2, r3
 8001192:	4668      	mov	r0, sp
 8001194:	f7ff fe72 	bl	8000e7c <packing>
 8001198:	4621      	mov	r1, r4
 800119a:	f7ff fc25 	bl	80009e8 <ark>
 800119e:	4668      	mov	r0, sp
 80011a0:	f7ff fee7 	bl	8000f72 <sbox>
 80011a4:	f7ff fc3e 	bl	8000a24 <mixcolumns_0>
 80011a8:	f104 0120 	add.w	r1, r4, #32
 80011ac:	f7ff fc1c 	bl	80009e8 <ark>
 80011b0:	4668      	mov	r0, sp
 80011b2:	f7ff fede 	bl	8000f72 <sbox>
 80011b6:	f7ff fcea 	bl	8000b8e <mixcolumns_1>
 80011ba:	f104 0140 	add.w	r1, r4, #64	@ 0x40
 80011be:	f7ff fc13 	bl	80009e8 <ark>
 80011c2:	4668      	mov	r0, sp
 80011c4:	f7ff fed5 	bl	8000f72 <sbox>
 80011c8:	f7ff fd5e 	bl	8000c88 <mixcolumns_2>
 80011cc:	f104 0160 	add.w	r1, r4, #96	@ 0x60
 80011d0:	f7ff fc0a 	bl	80009e8 <ark>
 80011d4:	4668      	mov	r0, sp
 80011d6:	f7ff fecc 	bl	8000f72 <sbox>
 80011da:	f7ff fe0a 	bl	8000df2 <mixcolumns_3>
 80011de:	f104 0180 	add.w	r1, r4, #128	@ 0x80
 80011e2:	f7ff fc01 	bl	80009e8 <ark>
 80011e6:	4668      	mov	r0, sp
 80011e8:	f7ff fec3 	bl	8000f72 <sbox>
 80011ec:	f7ff fc1a 	bl	8000a24 <mixcolumns_0>
 80011f0:	f104 01a0 	add.w	r1, r4, #160	@ 0xa0
 80011f4:	f7ff fbf8 	bl	80009e8 <ark>
 80011f8:	4668      	mov	r0, sp
 80011fa:	f7ff feba 	bl	8000f72 <sbox>
 80011fe:	f7ff fcc6 	bl	8000b8e <mixcolumns_1>
 8001202:	f104 01c0 	add.w	r1, r4, #192	@ 0xc0
 8001206:	f7ff fbef 	bl	80009e8 <ark>
 800120a:	4668      	mov	r0, sp
 800120c:	f7ff feb1 	bl	8000f72 <sbox>
 8001210:	f7ff fd3a 	bl	8000c88 <mixcolumns_2>
 8001214:	f104 01e0 	add.w	r1, r4, #224	@ 0xe0
 8001218:	f7ff fbe6 	bl	80009e8 <ark>
 800121c:	4668      	mov	r0, sp
 800121e:	f7ff fea8 	bl	8000f72 <sbox>
 8001222:	f7ff fde6 	bl	8000df2 <mixcolumns_3>
 8001226:	f504 7180 	add.w	r1, r4, #256	@ 0x100
 800122a:	f7ff fbdd 	bl	80009e8 <ark>
 800122e:	4668      	mov	r0, sp
 8001230:	f7ff fe9f 	bl	8000f72 <sbox>
 8001234:	f7ff fbf6 	bl	8000a24 <mixcolumns_0>
 8001238:	f504 7190 	add.w	r1, r4, #288	@ 0x120
 800123c:	f7ff fbd4 	bl	80009e8 <ark>
 8001240:	4668      	mov	r0, sp
 8001242:	f7ff fe96 	bl	8000f72 <sbox>
 8001246:	f7ff fbdd 	bl	8000a04 <double_shiftrows>
 800124a:	f504 71a0 	add.w	r1, r4, #320	@ 0x140
 800124e:	4668      	mov	r0, sp
 8001250:	f7ff fbca 	bl	80009e8 <ark>
 8001254:	466a      	mov	r2, sp
 8001256:	4631      	mov	r1, r6
 8001258:	4628      	mov	r0, r5
 800125a:	f7ff fb09 	bl	8000870 <unpacking>
 800125e:	b008      	add	sp, #32
 8001260:	bd70      	pop	{r4, r5, r6, pc}

08001262 <two_Rounds_aes128_encrypt_ffs>:
 8001262:	b570      	push	{r4, r5, r6, lr}
 8001264:	b088      	sub	sp, #32
 8001266:	4604      	mov	r4, r0
 8001268:	460d      	mov	r5, r1
 800126a:	4611      	mov	r1, r2
 800126c:	9e0c      	ldr	r6, [sp, #48]	@ 0x30
 800126e:	461a      	mov	r2, r3
 8001270:	4668      	mov	r0, sp
 8001272:	f7ff fe03 	bl	8000e7c <packing>
 8001276:	4631      	mov	r1, r6
 8001278:	f7ff fbb6 	bl	80009e8 <ark>
 800127c:	4668      	mov	r0, sp
 800127e:	f7ff fe78 	bl	8000f72 <sbox>
 8001282:	f7ff fbcf 	bl	8000a24 <mixcolumns_0>
 8001286:	f106 0120 	add.w	r1, r6, #32
 800128a:	f7ff fbad 	bl	80009e8 <ark>
 800128e:	4668      	mov	r0, sp
 8001290:	f7ff fe6f 	bl	8000f72 <sbox>
 8001294:	f7ff fc7b 	bl	8000b8e <mixcolumns_1>
 8001298:	f106 0140 	add.w	r1, r6, #64	@ 0x40
 800129c:	f7ff fba4 	bl	80009e8 <ark>
 80012a0:	4668      	mov	r0, sp
 80012a2:	f7ff fbaf 	bl	8000a04 <double_shiftrows>
 80012a6:	466a      	mov	r2, sp
 80012a8:	4629      	mov	r1, r5
 80012aa:	4620      	mov	r0, r4
 80012ac:	f7ff fae0 	bl	8000870 <unpacking>
 80012b0:	b008      	add	sp, #32
 80012b2:	bd70      	pop	{r4, r5, r6, pc}

080012b4 <four_Rounds_aes128_encrypt_ffs>:
 80012b4:	b570      	push	{r4, r5, r6, lr}
 80012b6:	b088      	sub	sp, #32
 80012b8:	4605      	mov	r5, r0
 80012ba:	460e      	mov	r6, r1
 80012bc:	4611      	mov	r1, r2
 80012be:	9c0c      	ldr	r4, [sp, #48]	@ 0x30
 80012c0:	461a      	mov	r2, r3
 80012c2:	4668      	mov	r0, sp
 80012c4:	f7ff fdda 	bl	8000e7c <packing>
 80012c8:	4621      	mov	r1, r4
 80012ca:	f7ff fb8d 	bl	80009e8 <ark>
 80012ce:	4668      	mov	r0, sp
 80012d0:	f7ff fe4f 	bl	8000f72 <sbox>
 80012d4:	f7ff fba6 	bl	8000a24 <mixcolumns_0>
 80012d8:	f104 0120 	add.w	r1, r4, #32
 80012dc:	f7ff fb84 	bl	80009e8 <ark>
 80012e0:	4668      	mov	r0, sp
 80012e2:	f7ff fe46 	bl	8000f72 <sbox>
 80012e6:	f7ff fc52 	bl	8000b8e <mixcolumns_1>
 80012ea:	f104 0140 	add.w	r1, r4, #64	@ 0x40
 80012ee:	f7ff fb7b 	bl	80009e8 <ark>
 80012f2:	4668      	mov	r0, sp
 80012f4:	f7ff fe3d 	bl	8000f72 <sbox>
 80012f8:	f7ff fcc6 	bl	8000c88 <mixcolumns_2>
 80012fc:	f104 0160 	add.w	r1, r4, #96	@ 0x60
 8001300:	f7ff fb72 	bl	80009e8 <ark>
 8001304:	4668      	mov	r0, sp
 8001306:	f7ff fe34 	bl	8000f72 <sbox>
 800130a:	f7ff fd72 	bl	8000df2 <mixcolumns_3>
 800130e:	f104 0180 	add.w	r1, r4, #128	@ 0x80
 8001312:	f7ff fb69 	bl	80009e8 <ark>
 8001316:	466a      	mov	r2, sp
 8001318:	4631      	mov	r1, r6
 800131a:	4628      	mov	r0, r5
 800131c:	f7ff faa8 	bl	8000870 <unpacking>
 8001320:	b008      	add	sp, #32
 8001322:	bd70      	pop	{r4, r5, r6, pc}

08001324 <six_Rounds_aes128_encrypt_ffs>:
 8001324:	b570      	push	{r4, r5, r6, lr}
 8001326:	b088      	sub	sp, #32
 8001328:	4605      	mov	r5, r0
 800132a:	460e      	mov	r6, r1
 800132c:	4611      	mov	r1, r2
 800132e:	9c0c      	ldr	r4, [sp, #48]	@ 0x30
 8001330:	461a      	mov	r2, r3
 8001332:	4668      	mov	r0, sp
 8001334:	f7ff fda2 	bl	8000e7c <packing>
 8001338:	4621      	mov	r1, r4
 800133a:	f7ff fb55 	bl	80009e8 <ark>
 800133e:	4668      	mov	r0, sp
 8001340:	f7ff fe17 	bl	8000f72 <sbox>
 8001344:	f7ff fb6e 	bl	8000a24 <mixcolumns_0>
 8001348:	f104 0120 	add.w	r1, r4, #32
 800134c:	f7ff fb4c 	bl	80009e8 <ark>
 8001350:	4668      	mov	r0, sp
 8001352:	f7ff fe0e 	bl	8000f72 <sbox>
 8001356:	f7ff fc1a 	bl	8000b8e <mixcolumns_1>
 800135a:	f104 0140 	add.w	r1, r4, #64	@ 0x40
 800135e:	f7ff fb43 	bl	80009e8 <ark>
 8001362:	4668      	mov	r0, sp
 8001364:	f7ff fe05 	bl	8000f72 <sbox>
 8001368:	f7ff fc8e 	bl	8000c88 <mixcolumns_2>
 800136c:	f104 0160 	add.w	r1, r4, #96	@ 0x60
 8001370:	f7ff fb3a 	bl	80009e8 <ark>
 8001374:	4668      	mov	r0, sp
 8001376:	f7ff fdfc 	bl	8000f72 <sbox>
 800137a:	f7ff fd3a 	bl	8000df2 <mixcolumns_3>
 800137e:	f104 0180 	add.w	r1, r4, #128	@ 0x80
 8001382:	f7ff fb31 	bl	80009e8 <ark>
 8001386:	4668      	mov	r0, sp
 8001388:	f7ff fdf3 	bl	8000f72 <sbox>
 800138c:	f7ff fb4a 	bl	8000a24 <mixcolumns_0>
 8001390:	f104 01a0 	add.w	r1, r4, #160	@ 0xa0
 8001394:	f7ff fb28 	bl	80009e8 <ark>
 8001398:	4668      	mov	r0, sp
 800139a:	f7ff fdea 	bl	8000f72 <sbox>
 800139e:	f7ff fbf6 	bl	8000b8e <mixcolumns_1>
 80013a2:	f104 01c0 	add.w	r1, r4, #192	@ 0xc0
 80013a6:	f7ff fb1f 	bl	80009e8 <ark>
 80013aa:	4668      	mov	r0, sp
 80013ac:	f7ff fb2a 	bl	8000a04 <double_shiftrows>
 80013b0:	466a      	mov	r2, sp
 80013b2:	4631      	mov	r1, r6
 80013b4:	4628      	mov	r0, r5
 80013b6:	f7ff fa5b 	bl	8000870 <unpacking>
 80013ba:	b008      	add	sp, #32
 80013bc:	bd70      	pop	{r4, r5, r6, pc}

080013be <eigth_Rounds_aes128_encrypt_ffs>:
 80013be:	b570      	push	{r4, r5, r6, lr}
 80013c0:	b088      	sub	sp, #32
 80013c2:	4605      	mov	r5, r0
 80013c4:	460e      	mov	r6, r1
 80013c6:	4611      	mov	r1, r2
 80013c8:	9c0c      	ldr	r4, [sp, #48]	@ 0x30
 80013ca:	461a      	mov	r2, r3
 80013cc:	4668      	mov	r0, sp
 80013ce:	f7ff fd55 	bl	8000e7c <packing>
 80013d2:	4621      	mov	r1, r4
 80013d4:	f7ff fb08 	bl	80009e8 <ark>
 80013d8:	4668      	mov	r0, sp
 80013da:	f7ff fdca 	bl	8000f72 <sbox>
 80013de:	f7ff fb21 	bl	8000a24 <mixcolumns_0>
 80013e2:	f104 0120 	add.w	r1, r4, #32
 80013e6:	f7ff faff 	bl	80009e8 <ark>
 80013ea:	4668      	mov	r0, sp
 80013ec:	f7ff fdc1 	bl	8000f72 <sbox>
 80013f0:	f7ff fbcd 	bl	8000b8e <mixcolumns_1>
 80013f4:	f104 0140 	add.w	r1, r4, #64	@ 0x40
 80013f8:	f7ff faf6 	bl	80009e8 <ark>
 80013fc:	4668      	mov	r0, sp
 80013fe:	f7ff fdb8 	bl	8000f72 <sbox>
 8001402:	f7ff fc41 	bl	8000c88 <mixcolumns_2>
 8001406:	f104 0160 	add.w	r1, r4, #96	@ 0x60
 800140a:	f7ff faed 	bl	80009e8 <ark>
 800140e:	4668      	mov	r0, sp
 8001410:	f7ff fdaf 	bl	8000f72 <sbox>
 8001414:	f7ff fced 	bl	8000df2 <mixcolumns_3>
 8001418:	f104 0180 	add.w	r1, r4, #128	@ 0x80
 800141c:	f7ff fae4 	bl	80009e8 <ark>
 8001420:	4668      	mov	r0, sp
 8001422:	f7ff fda6 	bl	8000f72 <sbox>
 8001426:	f7ff fafd 	bl	8000a24 <mixcolumns_0>
 800142a:	f104 01a0 	add.w	r1, r4, #160	@ 0xa0
 800142e:	f7ff fadb 	bl	80009e8 <ark>
 8001432:	4668      	mov	r0, sp
 8001434:	f7ff fd9d 	bl	8000f72 <sbox>
 8001438:	f7ff fba9 	bl	8000b8e <mixcolumns_1>
 800143c:	f104 01c0 	add.w	r1, r4, #192	@ 0xc0
 8001440:	f7ff fad2 	bl	80009e8 <ark>
 8001444:	4668      	mov	r0, sp
 8001446:	f7ff fd94 	bl	8000f72 <sbox>
 800144a:	f7ff fc1d 	bl	8000c88 <mixcolumns_2>
 800144e:	f104 01e0 	add.w	r1, r4, #224	@ 0xe0
 8001452:	f7ff fac9 	bl	80009e8 <ark>
 8001456:	4668      	mov	r0, sp
 8001458:	f7ff fd8b 	bl	8000f72 <sbox>
 800145c:	f7ff fcc9 	bl	8000df2 <mixcolumns_3>
 8001460:	f504 7180 	add.w	r1, r4, #256	@ 0x100
 8001464:	f7ff fac0 	bl	80009e8 <ark>
 8001468:	466a      	mov	r2, sp
 800146a:	4631      	mov	r1, r6
 800146c:	4628      	mov	r0, r5
 800146e:	f7ff f9ff 	bl	8000870 <unpacking>
 8001472:	b008      	add	sp, #32
 8001474:	bd70      	pop	{r4, r5, r6, pc}
	...

08001478 <inv_shiftrows_1>:
 8001478:	1f02      	subs	r2, r0, #4
 800147a:	301c      	adds	r0, #28
 800147c:	b510      	push	{r4, lr}
 800147e:	4c0b      	ldr	r4, [pc, #44]	@ (80014ac <inv_shiftrows_1+0x34>)
 8001480:	f852 3f04 	ldr.w	r3, [r2, #4]!
 8001484:	ea83 1113 	eor.w	r1, r3, r3, lsr #4
 8001488:	4290      	cmp	r0, r2
 800148a:	ea01 0104 	and.w	r1, r1, r4
 800148e:	ea83 0301 	eor.w	r3, r3, r1
 8001492:	ea83 1301 	eor.w	r3, r3, r1, lsl #4
 8001496:	ea83 0193 	eor.w	r1, r3, r3, lsr #2
 800149a:	f001 2133 	and.w	r1, r1, #855651072	@ 0x33003300
 800149e:	ea83 0301 	eor.w	r3, r3, r1
 80014a2:	ea83 0381 	eor.w	r3, r3, r1, lsl #2
 80014a6:	6013      	str	r3, [r2, #0]
 80014a8:	d1ea      	bne.n	8001480 <inv_shiftrows_1+0x8>
 80014aa:	bd10      	pop	{r4, pc}
 80014ac:	0c0f0300 	.word	0x0c0f0300

080014b0 <inv_shiftrows_2>:
 80014b0:	1f02      	subs	r2, r0, #4
 80014b2:	301c      	adds	r0, #28
 80014b4:	f852 3f04 	ldr.w	r3, [r2, #4]!
 80014b8:	ea83 1113 	eor.w	r1, r3, r3, lsr #4
 80014bc:	4290      	cmp	r0, r2
 80014be:	f001 210f 	and.w	r1, r1, #251662080	@ 0xf000f00
 80014c2:	ea83 0301 	eor.w	r3, r3, r1
 80014c6:	ea83 1301 	eor.w	r3, r3, r1, lsl #4
 80014ca:	6013      	str	r3, [r2, #0]
 80014cc:	d1f2      	bne.n	80014b4 <inv_shiftrows_2+0x4>
 80014ce:	4770      	bx	lr

080014d0 <inv_shiftrows_3>:
 80014d0:	1f02      	subs	r2, r0, #4
 80014d2:	301c      	adds	r0, #28
 80014d4:	b510      	push	{r4, lr}
 80014d6:	4c0b      	ldr	r4, [pc, #44]	@ (8001504 <inv_shiftrows_3+0x34>)
 80014d8:	f852 3f04 	ldr.w	r3, [r2, #4]!
 80014dc:	ea83 1113 	eor.w	r1, r3, r3, lsr #4
 80014e0:	4290      	cmp	r0, r2
 80014e2:	ea01 0104 	and.w	r1, r1, r4
 80014e6:	ea83 0301 	eor.w	r3, r3, r1
 80014ea:	ea83 1301 	eor.w	r3, r3, r1, lsl #4
 80014ee:	ea83 0193 	eor.w	r1, r3, r3, lsr #2
 80014f2:	f001 2133 	and.w	r1, r1, #855651072	@ 0x33003300
 80014f6:	ea83 0301 	eor.w	r3, r3, r1
 80014fa:	ea83 0381 	eor.w	r3, r3, r1, lsl #2
 80014fe:	6013      	str	r3, [r2, #0]
 8001500:	d1ea      	bne.n	80014d8 <inv_shiftrows_3+0x8>
 8001502:	bd10      	pop	{r4, pc}
 8001504:	030f0c00 	.word	0x030f0c00

08001508 <xor_columns>:
 8001508:	6843      	ldr	r3, [r0, #4]
 800150a:	43db      	mvns	r3, r3
 800150c:	6043      	str	r3, [r0, #4]
 800150e:	6883      	ldr	r3, [r0, #8]
 8001510:	43db      	mvns	r3, r3
 8001512:	6083      	str	r3, [r0, #8]
 8001514:	6983      	ldr	r3, [r0, #24]
 8001516:	43db      	mvns	r3, r3
 8001518:	6183      	str	r3, [r0, #24]
 800151a:	69c3      	ldr	r3, [r0, #28]
 800151c:	43db      	mvns	r3, r3
 800151e:	61c3      	str	r3, [r0, #28]
 8001520:	f06f 0303 	mvn.w	r3, #3
 8001524:	b530      	push	{r4, r5, lr}
 8001526:	fb03 0101 	mla	r1, r3, r1, r0
 800152a:	f100 0520 	add.w	r5, r0, #32
 800152e:	6803      	ldr	r3, [r0, #0]
 8001530:	680c      	ldr	r4, [r1, #0]
 8001532:	41d3      	rors	r3, r2
 8001534:	4063      	eors	r3, r4
 8001536:	f003 33c0 	and.w	r3, r3, #3233857728	@ 0xc0c0c0c0
 800153a:	f840 3b04 	str.w	r3, [r0], #4
 800153e:	42a8      	cmp	r0, r5
 8001540:	f851 4b04 	ldr.w	r4, [r1], #4
 8001544:	ea84 0493 	eor.w	r4, r4, r3, lsr #2
 8001548:	f004 3430 	and.w	r4, r4, #808464432	@ 0x30303030
 800154c:	ea44 0403 	orr.w	r4, r4, r3
 8001550:	f840 4c04 	str.w	r4, [r0, #-4]
 8001554:	f851 3c04 	ldr.w	r3, [r1, #-4]
 8001558:	ea83 0394 	eor.w	r3, r3, r4, lsr #2
 800155c:	f003 330c 	and.w	r3, r3, #202116108	@ 0xc0c0c0c
 8001560:	ea43 0304 	orr.w	r3, r3, r4
 8001564:	f840 3c04 	str.w	r3, [r0, #-4]
 8001568:	f851 4c04 	ldr.w	r4, [r1, #-4]
 800156c:	ea84 0493 	eor.w	r4, r4, r3, lsr #2
 8001570:	f004 3403 	and.w	r4, r4, #50529027	@ 0x3030303
 8001574:	ea44 0403 	orr.w	r4, r4, r3
 8001578:	f840 4c04 	str.w	r4, [r0, #-4]
 800157c:	d1d7      	bne.n	800152e <xor_columns+0x26>
 800157e:	bd30      	pop	{r4, r5, pc}

08001580 <aes128_keyschedule_ffs>:
 8001580:	b5f8      	push	{r3, r4, r5, r6, r7, lr}
 8001582:	4604      	mov	r4, r0
 8001584:	f7ff fc7a 	bl	8000e7c <packing>
 8001588:	f104 0520 	add.w	r5, r4, #32
 800158c:	4623      	mov	r3, r4
 800158e:	462a      	mov	r2, r5
 8001590:	f853 1b04 	ldr.w	r1, [r3], #4
 8001594:	42ab      	cmp	r3, r5
 8001596:	f842 1b04 	str.w	r1, [r2], #4
 800159a:	d1f9      	bne.n	8001590 <aes128_keyschedule_ffs+0x10>
 800159c:	4628      	mov	r0, r5
 800159e:	f104 0740 	add.w	r7, r4, #64	@ 0x40
 80015a2:	f7ff fce6 	bl	8000f72 <sbox>
 80015a6:	6be3      	ldr	r3, [r4, #60]	@ 0x3c
 80015a8:	2202      	movs	r2, #2
 80015aa:	2108      	movs	r1, #8
 80015ac:	f483 7340 	eor.w	r3, r3, #768	@ 0x300
 80015b0:	4628      	mov	r0, r5
 80015b2:	63e3      	str	r3, [r4, #60]	@ 0x3c
 80015b4:	f7ff ffa8 	bl	8001508 <xor_columns>
 80015b8:	462b      	mov	r3, r5
 80015ba:	463a      	mov	r2, r7
 80015bc:	f105 0120 	add.w	r1, r5, #32
 80015c0:	f853 0b04 	ldr.w	r0, [r3], #4
 80015c4:	428b      	cmp	r3, r1
 80015c6:	f842 0b04 	str.w	r0, [r2], #4
 80015ca:	d1f9      	bne.n	80015c0 <aes128_keyschedule_ffs+0x40>
 80015cc:	4638      	mov	r0, r7
 80015ce:	f104 0660 	add.w	r6, r4, #96	@ 0x60
 80015d2:	f7ff fcce 	bl	8000f72 <sbox>
 80015d6:	6da3      	ldr	r3, [r4, #88]	@ 0x58
 80015d8:	2202      	movs	r2, #2
 80015da:	2108      	movs	r1, #8
 80015dc:	f483 7340 	eor.w	r3, r3, #768	@ 0x300
 80015e0:	4638      	mov	r0, r7
 80015e2:	65a3      	str	r3, [r4, #88]	@ 0x58
 80015e4:	f7ff ff90 	bl	8001508 <xor_columns>
 80015e8:	4628      	mov	r0, r5
 80015ea:	f7ff ff45 	bl	8001478 <inv_shiftrows_1>
 80015ee:	463b      	mov	r3, r7
 80015f0:	4632      	mov	r2, r6
 80015f2:	f107 0120 	add.w	r1, r7, #32
 80015f6:	f853 0b04 	ldr.w	r0, [r3], #4
 80015fa:	428b      	cmp	r3, r1
 80015fc:	f842 0b04 	str.w	r0, [r2], #4
 8001600:	d1f9      	bne.n	80015f6 <aes128_keyschedule_ffs+0x76>
 8001602:	4630      	mov	r0, r6
 8001604:	f104 0580 	add.w	r5, r4, #128	@ 0x80
 8001608:	f7ff fcb3 	bl	8000f72 <sbox>
 800160c:	6f63      	ldr	r3, [r4, #116]	@ 0x74
 800160e:	2202      	movs	r2, #2
 8001610:	2108      	movs	r1, #8
 8001612:	f483 7340 	eor.w	r3, r3, #768	@ 0x300
 8001616:	4630      	mov	r0, r6
 8001618:	6763      	str	r3, [r4, #116]	@ 0x74
 800161a:	f7ff ff75 	bl	8001508 <xor_columns>
 800161e:	4638      	mov	r0, r7
 8001620:	f7ff ff46 	bl	80014b0 <inv_shiftrows_2>
 8001624:	4633      	mov	r3, r6
 8001626:	462a      	mov	r2, r5
 8001628:	f106 0120 	add.w	r1, r6, #32
 800162c:	f853 0b04 	ldr.w	r0, [r3], #4
 8001630:	428b      	cmp	r3, r1
 8001632:	f842 0b04 	str.w	r0, [r2], #4
 8001636:	d1f9      	bne.n	800162c <aes128_keyschedule_ffs+0xac>
 8001638:	4628      	mov	r0, r5
 800163a:	f7ff fc9a 	bl	8000f72 <sbox>
 800163e:	f8d4 3090 	ldr.w	r3, [r4, #144]	@ 0x90
 8001642:	2202      	movs	r2, #2
 8001644:	2108      	movs	r1, #8
 8001646:	f483 7340 	eor.w	r3, r3, #768	@ 0x300
 800164a:	4628      	mov	r0, r5
 800164c:	f8c4 3090 	str.w	r3, [r4, #144]	@ 0x90
 8001650:	f7ff ff5a 	bl	8001508 <xor_columns>
 8001654:	4630      	mov	r0, r6
 8001656:	f104 06a0 	add.w	r6, r4, #160	@ 0xa0
 800165a:	f7ff ff39 	bl	80014d0 <inv_shiftrows_3>
 800165e:	f105 0220 	add.w	r2, r5, #32
 8001662:	4633      	mov	r3, r6
 8001664:	f855 1b04 	ldr.w	r1, [r5], #4
 8001668:	4295      	cmp	r5, r2
 800166a:	f843 1b04 	str.w	r1, [r3], #4
 800166e:	d1f9      	bne.n	8001664 <aes128_keyschedule_ffs+0xe4>
 8001670:	4630      	mov	r0, r6
 8001672:	f104 05c0 	add.w	r5, r4, #192	@ 0xc0
 8001676:	f7ff fc7c 	bl	8000f72 <sbox>
 800167a:	f8d4 30ac 	ldr.w	r3, [r4, #172]	@ 0xac
 800167e:	2202      	movs	r2, #2
 8001680:	2108      	movs	r1, #8
 8001682:	f483 7340 	eor.w	r3, r3, #768	@ 0x300
 8001686:	4630      	mov	r0, r6
 8001688:	f8c4 30ac 	str.w	r3, [r4, #172]	@ 0xac
 800168c:	f7ff ff3c 	bl	8001508 <xor_columns>
 8001690:	4633      	mov	r3, r6
 8001692:	462a      	mov	r2, r5
 8001694:	f106 0120 	add.w	r1, r6, #32
 8001698:	f853 0b04 	ldr.w	r0, [r3], #4
 800169c:	428b      	cmp	r3, r1
 800169e:	f842 0b04 	str.w	r0, [r2], #4
 80016a2:	d1f9      	bne.n	8001698 <aes128_keyschedule_ffs+0x118>
 80016a4:	4628      	mov	r0, r5
 80016a6:	f7ff fc64 	bl	8000f72 <sbox>
 80016aa:	f8d4 30c8 	ldr.w	r3, [r4, #200]	@ 0xc8
 80016ae:	2202      	movs	r2, #2
 80016b0:	2108      	movs	r1, #8
 80016b2:	f483 7340 	eor.w	r3, r3, #768	@ 0x300
 80016b6:	4628      	mov	r0, r5
 80016b8:	f8c4 30c8 	str.w	r3, [r4, #200]	@ 0xc8
 80016bc:	f7ff ff24 	bl	8001508 <xor_columns>
 80016c0:	4630      	mov	r0, r6
 80016c2:	f104 06e0 	add.w	r6, r4, #224	@ 0xe0
 80016c6:	f7ff fed7 	bl	8001478 <inv_shiftrows_1>
 80016ca:	462b      	mov	r3, r5
 80016cc:	f105 0120 	add.w	r1, r5, #32
 80016d0:	4632      	mov	r2, r6
 80016d2:	f853 0b04 	ldr.w	r0, [r3], #4
 80016d6:	428b      	cmp	r3, r1
 80016d8:	f842 0b04 	str.w	r0, [r2], #4
 80016dc:	d1f9      	bne.n	80016d2 <aes128_keyschedule_ffs+0x152>
 80016de:	4630      	mov	r0, r6
 80016e0:	f7ff fc47 	bl	8000f72 <sbox>
 80016e4:	f8d4 30e4 	ldr.w	r3, [r4, #228]	@ 0xe4
 80016e8:	2202      	movs	r2, #2
 80016ea:	2108      	movs	r1, #8
 80016ec:	f483 7340 	eor.w	r3, r3, #768	@ 0x300
 80016f0:	4630      	mov	r0, r6
 80016f2:	f8c4 30e4 	str.w	r3, [r4, #228]	@ 0xe4
 80016f6:	f7ff ff07 	bl	8001508 <xor_columns>
 80016fa:	4628      	mov	r0, r5
 80016fc:	f504 7580 	add.w	r5, r4, #256	@ 0x100
 8001700:	f7ff fed6 	bl	80014b0 <inv_shiftrows_2>
 8001704:	4633      	mov	r3, r6
 8001706:	f106 0120 	add.w	r1, r6, #32
 800170a:	462a      	mov	r2, r5
 800170c:	f853 0b04 	ldr.w	r0, [r3], #4
 8001710:	428b      	cmp	r3, r1
 8001712:	f842 0b04 	str.w	r0, [r2], #4
 8001716:	d1f9      	bne.n	800170c <aes128_keyschedule_ffs+0x18c>
 8001718:	4628      	mov	r0, r5
 800171a:	f7ff fc2a 	bl	8000f72 <sbox>
 800171e:	f8d4 3100 	ldr.w	r3, [r4, #256]	@ 0x100
 8001722:	2202      	movs	r2, #2
 8001724:	2108      	movs	r1, #8
 8001726:	f483 7340 	eor.w	r3, r3, #768	@ 0x300
 800172a:	4628      	mov	r0, r5
 800172c:	f8c4 3100 	str.w	r3, [r4, #256]	@ 0x100
 8001730:	f7ff feea 	bl	8001508 <xor_columns>
 8001734:	4630      	mov	r0, r6
 8001736:	f504 7690 	add.w	r6, r4, #288	@ 0x120
 800173a:	f7ff fec9 	bl	80014d0 <inv_shiftrows_3>
 800173e:	f105 0220 	add.w	r2, r5, #32
 8001742:	4633      	mov	r3, r6
 8001744:	f855 1b04 	ldr.w	r1, [r5], #4
 8001748:	4295      	cmp	r5, r2
 800174a:	f843 1b04 	str.w	r1, [r3], #4
 800174e:	d1f9      	bne.n	8001744 <aes128_keyschedule_ffs+0x1c4>
 8001750:	4630      	mov	r0, r6
 8001752:	f504 75a0 	add.w	r5, r4, #320	@ 0x140
 8001756:	f7ff fc0c 	bl	8000f72 <sbox>
 800175a:	f8d4 313c 	ldr.w	r3, [r4, #316]	@ 0x13c
 800175e:	2202      	movs	r2, #2
 8001760:	2108      	movs	r1, #8
 8001762:	f483 7340 	eor.w	r3, r3, #768	@ 0x300
 8001766:	4630      	mov	r0, r6
 8001768:	f8c4 313c 	str.w	r3, [r4, #316]	@ 0x13c
 800176c:	f8d4 3138 	ldr.w	r3, [r4, #312]	@ 0x138
 8001770:	f483 7340 	eor.w	r3, r3, #768	@ 0x300
 8001774:	f8c4 3138 	str.w	r3, [r4, #312]	@ 0x138
 8001778:	f8d4 3130 	ldr.w	r3, [r4, #304]	@ 0x130
 800177c:	f483 7340 	eor.w	r3, r3, #768	@ 0x300
 8001780:	f8c4 3130 	str.w	r3, [r4, #304]	@ 0x130
 8001784:	f8d4 312c 	ldr.w	r3, [r4, #300]	@ 0x12c
 8001788:	f483 7340 	eor.w	r3, r3, #768	@ 0x300
 800178c:	f8c4 312c 	str.w	r3, [r4, #300]	@ 0x12c
 8001790:	f7ff feba 	bl	8001508 <xor_columns>
 8001794:	4633      	mov	r3, r6
 8001796:	462a      	mov	r2, r5
 8001798:	f106 0120 	add.w	r1, r6, #32
 800179c:	f853 0b04 	ldr.w	r0, [r3], #4
 80017a0:	428b      	cmp	r3, r1
 80017a2:	f842 0b04 	str.w	r0, [r2], #4
 80017a6:	d1f9      	bne.n	800179c <aes128_keyschedule_ffs+0x21c>
 80017a8:	4628      	mov	r0, r5
 80017aa:	f7ff fbe2 	bl	8000f72 <sbox>
 80017ae:	f8d4 3158 	ldr.w	r3, [r4, #344]	@ 0x158
 80017b2:	4628      	mov	r0, r5
 80017b4:	2202      	movs	r2, #2
 80017b6:	f483 7340 	eor.w	r3, r3, #768	@ 0x300
 80017ba:	2108      	movs	r1, #8
 80017bc:	f8c4 3158 	str.w	r3, [r4, #344]	@ 0x158
 80017c0:	f8d4 3154 	ldr.w	r3, [r4, #340]	@ 0x154
 80017c4:	f483 7340 	eor.w	r3, r3, #768	@ 0x300
 80017c8:	f8c4 3154 	str.w	r3, [r4, #340]	@ 0x154
 80017cc:	f8d4 314c 	ldr.w	r3, [r4, #332]	@ 0x14c
 80017d0:	f483 7340 	eor.w	r3, r3, #768	@ 0x300
 80017d4:	f8c4 314c 	str.w	r3, [r4, #332]	@ 0x14c
 80017d8:	f8d4 3148 	ldr.w	r3, [r4, #328]	@ 0x148
 80017dc:	f483 7340 	eor.w	r3, r3, #768	@ 0x300
 80017e0:	f8c4 3148 	str.w	r3, [r4, #328]	@ 0x148
 80017e4:	f7ff fe90 	bl	8001508 <xor_columns>
 80017e8:	4630      	mov	r0, r6
 80017ea:	f7ff fe45 	bl	8001478 <inv_shiftrows_1>
 80017ee:	6a63      	ldr	r3, [r4, #36]	@ 0x24
 80017f0:	3420      	adds	r4, #32
 80017f2:	43db      	mvns	r3, r3
 80017f4:	6063      	str	r3, [r4, #4]
 80017f6:	68a3      	ldr	r3, [r4, #8]
 80017f8:	43db      	mvns	r3, r3
 80017fa:	60a3      	str	r3, [r4, #8]
 80017fc:	69a3      	ldr	r3, [r4, #24]
 80017fe:	43db      	mvns	r3, r3
 8001800:	61a3      	str	r3, [r4, #24]
 8001802:	69e3      	ldr	r3, [r4, #28]
 8001804:	43db      	mvns	r3, r3
 8001806:	61e3      	str	r3, [r4, #28]
 8001808:	42a5      	cmp	r5, r4
 800180a:	d1f0      	bne.n	80017ee <aes128_keyschedule_ffs+0x26e>
 800180c:	bdf8      	pop	{r3, r4, r5, r6, r7, pc}

0800180e <serial_printf>:
 800180e:	2200      	movs	r2, #0
 8001810:	3201      	adds	r2, #1
 8001812:	b292      	uxth	r2, r2
 8001814:	5c8b      	ldrb	r3, [r1, r2]
 8001816:	2b00      	cmp	r3, #0
 8001818:	d1fa      	bne.n	8001810 <serial_printf+0x2>
 800181a:	f04f 33ff 	mov.w	r3, #4294967295	@ 0xffffffff
 800181e:	f001 be80 	b.w	8003522 <HAL_UART_Transmit>
	...

08001824 <DWT_Init>:
 8001824:	4a08      	ldr	r2, [pc, #32]	@ (8001848 <DWT_Init+0x24>)
 8001826:	f8d2 30fc 	ldr.w	r3, [r2, #252]	@ 0xfc
 800182a:	f043 7380 	orr.w	r3, r3, #16777216	@ 0x1000000
 800182e:	f8c2 30fc 	str.w	r3, [r2, #252]	@ 0xfc
 8001832:	4b06      	ldr	r3, [pc, #24]	@ (800184c <DWT_Init+0x28>)
 8001834:	4a06      	ldr	r2, [pc, #24]	@ (8001850 <DWT_Init+0x2c>)
 8001836:	f8c3 2fb0 	str.w	r2, [r3, #4016]	@ 0xfb0
 800183a:	2200      	movs	r2, #0
 800183c:	605a      	str	r2, [r3, #4]
 800183e:	681a      	ldr	r2, [r3, #0]
 8001840:	f042 0201 	orr.w	r2, r2, #1
 8001844:	601a      	str	r2, [r3, #0]
 8001846:	4770      	bx	lr
 8001848:	e000ed00 	.word	0xe000ed00
 800184c:	e0001000 	.word	0xe0001000
 8001850:	c5acce55 	.word	0xc5acce55

08001854 <SystemClock_Config>:
 8001854:	b510      	push	{r4, lr}
 8001856:	b094      	sub	sp, #80	@ 0x50
 8001858:	2230      	movs	r2, #48	@ 0x30
 800185a:	2100      	movs	r1, #0
 800185c:	2402      	movs	r4, #2
 800185e:	a808      	add	r0, sp, #32
 8001860:	f002 f9f3 	bl	8003c4a <memset>
 8001864:	2214      	movs	r2, #20
 8001866:	2100      	movs	r1, #0
 8001868:	a803      	add	r0, sp, #12
 800186a:	f002 f9ee 	bl	8003c4a <memset>
 800186e:	f000 ff3f 	bl	80026f0 <HAL_PWR_EnableBkUpAccess>
 8001872:	4b1e      	ldr	r3, [pc, #120]	@ (80018ec <SystemClock_Config+0x98>)
 8001874:	2104      	movs	r1, #4
 8001876:	a808      	add	r0, sp, #32
 8001878:	6c1a      	ldr	r2, [r3, #64]	@ 0x40
 800187a:	f042 5280 	orr.w	r2, r2, #268435456	@ 0x10000000
 800187e:	641a      	str	r2, [r3, #64]	@ 0x40
 8001880:	6c1b      	ldr	r3, [r3, #64]	@ 0x40
 8001882:	4a1b      	ldr	r2, [pc, #108]	@ (80018f0 <SystemClock_Config+0x9c>)
 8001884:	f003 5380 	and.w	r3, r3, #268435456	@ 0x10000000
 8001888:	9301      	str	r3, [sp, #4]
 800188a:	9b01      	ldr	r3, [sp, #4]
 800188c:	6813      	ldr	r3, [r2, #0]
 800188e:	f423 4340 	bic.w	r3, r3, #49152	@ 0xc000
 8001892:	f443 4380 	orr.w	r3, r3, #16384	@ 0x4000
 8001896:	6013      	str	r3, [r2, #0]
 8001898:	6813      	ldr	r3, [r2, #0]
 800189a:	2201      	movs	r2, #1
 800189c:	9412      	str	r4, [sp, #72]	@ 0x48
 800189e:	f403 4340 	and.w	r3, r3, #49152	@ 0xc000
 80018a2:	9302      	str	r3, [sp, #8]
 80018a4:	9b02      	ldr	r3, [sp, #8]
 80018a6:	f44f 23a0 	mov.w	r3, #327680	@ 0x50000
 80018aa:	e9cd 2308 	strd	r2, r3, [sp, #32]
 80018ae:	f44f 0380 	mov.w	r3, #4194304	@ 0x400000
 80018b2:	e9cd 430e 	strd	r4, r3, [sp, #56]	@ 0x38
 80018b6:	2348      	movs	r3, #72	@ 0x48
 80018b8:	e9cd 1310 	strd	r1, r3, [sp, #64]	@ 0x40
 80018bc:	2303      	movs	r3, #3
 80018be:	9313      	str	r3, [sp, #76]	@ 0x4c
 80018c0:	f000 ff1e 	bl	8002700 <HAL_RCC_OscConfig>
 80018c4:	b108      	cbz	r0, 80018ca <SystemClock_Config+0x76>
 80018c6:	b672      	cpsid	i
 80018c8:	e7fe      	b.n	80018c8 <SystemClock_Config+0x74>
 80018ca:	230f      	movs	r3, #15
 80018cc:	9005      	str	r0, [sp, #20]
 80018ce:	4621      	mov	r1, r4
 80018d0:	e9cd 3403 	strd	r3, r4, [sp, #12]
 80018d4:	f44f 5380 	mov.w	r3, #4096	@ 0x1000
 80018d8:	e9cd 3006 	strd	r3, r0, [sp, #24]
 80018dc:	a803      	add	r0, sp, #12
 80018de:	f001 f8f7 	bl	8002ad0 <HAL_RCC_ClockConfig>
 80018e2:	b108      	cbz	r0, 80018e8 <SystemClock_Config+0x94>
 80018e4:	b672      	cpsid	i
 80018e6:	e7fe      	b.n	80018e6 <SystemClock_Config+0x92>
 80018e8:	b014      	add	sp, #80	@ 0x50
 80018ea:	bd10      	pop	{r4, pc}
 80018ec:	40023800 	.word	0x40023800
 80018f0:	40007000 	.word	0x40007000

080018f4 <main>:
 80018f4:	e92d 4ff0 	stmdb	sp!, {r4, r5, r6, r7, r8, r9, sl, fp, lr}
 80018f8:	b08f      	sub	sp, #60	@ 0x3c
 80018fa:	2400      	movs	r4, #0
 80018fc:	f000 fb3c 	bl	8001f78 <HAL_Init>
 8001900:	f44f 5700 	mov.w	r7, #8192	@ 0x2000
 8001904:	f7ff ffa6 	bl	8001854 <SystemClock_Config>
 8001908:	2214      	movs	r2, #20
 800190a:	2100      	movs	r1, #0
 800190c:	a809      	add	r0, sp, #36	@ 0x24
 800190e:	f002 f99c 	bl	8003c4a <memset>
 8001912:	4b90      	ldr	r3, [pc, #576]	@ (8001b54 <main+0x260>)
 8001914:	f244 0181 	movw	r1, #16513	@ 0x4081
 8001918:	488f      	ldr	r0, [pc, #572]	@ (8001b58 <main+0x264>)
 800191a:	6b1a      	ldr	r2, [r3, #48]	@ 0x30
 800191c:	2501      	movs	r5, #1
 800191e:	2680      	movs	r6, #128	@ 0x80
 8001920:	f042 0204 	orr.w	r2, r2, #4
 8001924:	631a      	str	r2, [r3, #48]	@ 0x30
 8001926:	6b1a      	ldr	r2, [r3, #48]	@ 0x30
 8001928:	f002 0204 	and.w	r2, r2, #4
 800192c:	9203      	str	r2, [sp, #12]
 800192e:	9a03      	ldr	r2, [sp, #12]
 8001930:	6b1a      	ldr	r2, [r3, #48]	@ 0x30
 8001932:	f042 0280 	orr.w	r2, r2, #128	@ 0x80
 8001936:	631a      	str	r2, [r3, #48]	@ 0x30
 8001938:	6b1a      	ldr	r2, [r3, #48]	@ 0x30
 800193a:	f002 0280 	and.w	r2, r2, #128	@ 0x80
 800193e:	9204      	str	r2, [sp, #16]
 8001940:	9a04      	ldr	r2, [sp, #16]
 8001942:	6b1a      	ldr	r2, [r3, #48]	@ 0x30
 8001944:	f042 0201 	orr.w	r2, r2, #1
 8001948:	631a      	str	r2, [r3, #48]	@ 0x30
 800194a:	6b1a      	ldr	r2, [r3, #48]	@ 0x30
 800194c:	f002 0201 	and.w	r2, r2, #1
 8001950:	9205      	str	r2, [sp, #20]
 8001952:	9a05      	ldr	r2, [sp, #20]
 8001954:	6b1a      	ldr	r2, [r3, #48]	@ 0x30
 8001956:	f042 0202 	orr.w	r2, r2, #2
 800195a:	631a      	str	r2, [r3, #48]	@ 0x30
 800195c:	6b1a      	ldr	r2, [r3, #48]	@ 0x30
 800195e:	f002 0202 	and.w	r2, r2, #2
 8001962:	9206      	str	r2, [sp, #24]
 8001964:	9a06      	ldr	r2, [sp, #24]
 8001966:	6b1a      	ldr	r2, [r3, #48]	@ 0x30
 8001968:	f042 0208 	orr.w	r2, r2, #8
 800196c:	631a      	str	r2, [r3, #48]	@ 0x30
 800196e:	6b1a      	ldr	r2, [r3, #48]	@ 0x30
 8001970:	f002 0208 	and.w	r2, r2, #8
 8001974:	9207      	str	r2, [sp, #28]
 8001976:	9a07      	ldr	r2, [sp, #28]
 8001978:	6b1a      	ldr	r2, [r3, #48]	@ 0x30
 800197a:	f042 0240 	orr.w	r2, r2, #64	@ 0x40
 800197e:	631a      	str	r2, [r3, #48]	@ 0x30
 8001980:	2200      	movs	r2, #0
 8001982:	6b1b      	ldr	r3, [r3, #48]	@ 0x30
 8001984:	f003 0340 	and.w	r3, r3, #64	@ 0x40
 8001988:	9308      	str	r3, [sp, #32]
 800198a:	9b08      	ldr	r3, [sp, #32]
 800198c:	f000 fe24 	bl	80025d8 <HAL_GPIO_WritePin>
 8001990:	2200      	movs	r2, #0
 8001992:	2140      	movs	r1, #64	@ 0x40
 8001994:	4871      	ldr	r0, [pc, #452]	@ (8001b5c <main+0x268>)
 8001996:	f000 fe1f 	bl	80025d8 <HAL_GPIO_WritePin>
 800199a:	f44f 1388 	mov.w	r3, #1114112	@ 0x110000
 800199e:	a909      	add	r1, sp, #36	@ 0x24
 80019a0:	486f      	ldr	r0, [pc, #444]	@ (8001b60 <main+0x26c>)
 80019a2:	940b      	str	r4, [sp, #44]	@ 0x2c
 80019a4:	e9cd 7309 	strd	r7, r3, [sp, #36]	@ 0x24
 80019a8:	f000 fd32 	bl	8002410 <HAL_GPIO_Init>
 80019ac:	f244 0381 	movw	r3, #16513	@ 0x4081
 80019b0:	a909      	add	r1, sp, #36	@ 0x24
 80019b2:	4869      	ldr	r0, [pc, #420]	@ (8001b58 <main+0x264>)
 80019b4:	e9cd 3509 	strd	r3, r5, [sp, #36]	@ 0x24
 80019b8:	e9cd 440b 	strd	r4, r4, [sp, #44]	@ 0x2c
 80019bc:	f000 fd28 	bl	8002410 <HAL_GPIO_Init>
 80019c0:	2340      	movs	r3, #64	@ 0x40
 80019c2:	a909      	add	r1, sp, #36	@ 0x24
 80019c4:	4865      	ldr	r0, [pc, #404]	@ (8001b5c <main+0x268>)
 80019c6:	e9cd 3509 	strd	r3, r5, [sp, #36]	@ 0x24
 80019ca:	e9cd 440b 	strd	r4, r4, [sp, #44]	@ 0x2c
 80019ce:	f000 fd1f 	bl	8002410 <HAL_GPIO_Init>
 80019d2:	a909      	add	r1, sp, #36	@ 0x24
 80019d4:	4861      	ldr	r0, [pc, #388]	@ (8001b5c <main+0x268>)
 80019d6:	940b      	str	r4, [sp, #44]	@ 0x2c
 80019d8:	e9cd 6409 	strd	r6, r4, [sp, #36]	@ 0x24
 80019dc:	f000 fd18 	bl	8002410 <HAL_GPIO_Init>
 80019e0:	4860      	ldr	r0, [pc, #384]	@ (8001b64 <main+0x270>)
 80019e2:	4b61      	ldr	r3, [pc, #388]	@ (8001b68 <main+0x274>)
 80019e4:	22e1      	movs	r2, #225	@ 0xe1
 80019e6:	6003      	str	r3, [r0, #0]
 80019e8:	4b60      	ldr	r3, [pc, #384]	@ (8001b6c <main+0x278>)
 80019ea:	701c      	strb	r4, [r3, #0]
 80019ec:	70dc      	strb	r4, [r3, #3]
 80019ee:	711c      	strb	r4, [r3, #4]
 80019f0:	715c      	strb	r4, [r3, #5]
 80019f2:	705e      	strb	r6, [r3, #1]
 80019f4:	709a      	strb	r2, [r3, #2]
 80019f6:	6043      	str	r3, [r0, #4]
 80019f8:	f44f 0300 	mov.w	r3, #8388608	@ 0x800000
 80019fc:	6083      	str	r3, [r0, #8]
 80019fe:	4b5c      	ldr	r3, [pc, #368]	@ (8001b70 <main+0x27c>)
 8001a00:	60c3      	str	r3, [r0, #12]
 8001a02:	4b5c      	ldr	r3, [pc, #368]	@ (8001b74 <main+0x280>)
 8001a04:	6103      	str	r3, [r0, #16]
 8001a06:	f240 53f4 	movw	r3, #1524	@ 0x5f4
 8001a0a:	6143      	str	r3, [r0, #20]
 8001a0c:	f000 fc04 	bl	8002218 <HAL_ETH_Init>
 8001a10:	4604      	mov	r4, r0
 8001a12:	b108      	cbz	r0, 8001a18 <main+0x124>
 8001a14:	b672      	cpsid	i
 8001a16:	e7fe      	b.n	8001a16 <main+0x122>
 8001a18:	4b57      	ldr	r3, [pc, #348]	@ (8001b78 <main+0x284>)
 8001a1a:	4601      	mov	r1, r0
 8001a1c:	2234      	movs	r2, #52	@ 0x34
 8001a1e:	4e57      	ldr	r6, [pc, #348]	@ (8001b7c <main+0x288>)
 8001a20:	4618      	mov	r0, r3
 8001a22:	f002 f912 	bl	8003c4a <memset>
 8001a26:	2221      	movs	r2, #33	@ 0x21
 8001a28:	f44f 33e1 	mov.w	r3, #115200	@ 0x1c200
 8001a2c:	f840 2c04 	str.w	r2, [r0, #-4]
 8001a30:	f44f 0240 	mov.w	r2, #12582912	@ 0xc00000
 8001a34:	6102      	str	r2, [r0, #16]
 8001a36:	4852      	ldr	r0, [pc, #328]	@ (8001b80 <main+0x28c>)
 8001a38:	e9c0 6300 	strd	r6, r3, [r0]
 8001a3c:	230c      	movs	r3, #12
 8001a3e:	6104      	str	r4, [r0, #16]
 8001a40:	6244      	str	r4, [r0, #36]	@ 0x24
 8001a42:	e9c0 3405 	strd	r3, r4, [r0, #20]
 8001a46:	e9c0 4402 	strd	r4, r4, [r0, #8]
 8001a4a:	e9c0 4407 	strd	r4, r4, [r0, #28]
 8001a4e:	f001 fde8 	bl	8003622 <HAL_UART_Init>
 8001a52:	4603      	mov	r3, r0
 8001a54:	b108      	cbz	r0, 8001a5a <main+0x166>
 8001a56:	b672      	cpsid	i
 8001a58:	e7fe      	b.n	8001a58 <main+0x164>
 8001a5a:	484a      	ldr	r0, [pc, #296]	@ (8001b84 <main+0x290>)
 8001a5c:	f04f 42a0 	mov.w	r2, #1342177280	@ 0x50000000
 8001a60:	6002      	str	r2, [r0, #0]
 8001a62:	2206      	movs	r2, #6
 8001a64:	8145      	strh	r5, [r0, #10]
 8001a66:	7102      	strb	r2, [r0, #4]
 8001a68:	f44f 7200 	mov.w	r2, #512	@ 0x200
 8001a6c:	7303      	strb	r3, [r0, #12]
 8001a6e:	80c2      	strh	r2, [r0, #6]
 8001a70:	2202      	movs	r2, #2
 8001a72:	81c5      	strh	r5, [r0, #14]
 8001a74:	7242      	strb	r2, [r0, #9]
 8001a76:	f000 fdb4 	bl	80025e2 <HAL_PCD_Init>
 8001a7a:	b108      	cbz	r0, 8001a80 <main+0x18c>
 8001a7c:	b672      	cpsid	i
 8001a7e:	e7fe      	b.n	8001a7e <main+0x18a>
 8001a80:	4e41      	ldr	r6, [pc, #260]	@ (8001b88 <main+0x294>)
 8001a82:	4633      	mov	r3, r6
 8001a84:	f803 0b01 	strb.w	r0, [r3], #1
 8001a88:	3001      	adds	r0, #1
 8001a8a:	f5b0 5f80 	cmp.w	r0, #4096	@ 0x1000
 8001a8e:	d1f9      	bne.n	8001a84 <main+0x190>
 8001a90:	4f3e      	ldr	r7, [pc, #248]	@ (8001b8c <main+0x298>)
 8001a92:	f7ff fec7 	bl	8001824 <DWT_Init>
 8001a96:	493e      	ldr	r1, [pc, #248]	@ (8001b90 <main+0x29c>)
 8001a98:	220c      	movs	r2, #12
 8001a9a:	483e      	ldr	r0, [pc, #248]	@ (8001b94 <main+0x2a0>)
 8001a9c:	46b9      	mov	r9, r7
 8001a9e:	2500      	movs	r5, #0
 8001aa0:	f8df a108 	ldr.w	sl, [pc, #264]	@ 8001bac <main+0x2b8>
 8001aa4:	f002 f86e 	bl	8003b84 <siprintf>
 8001aa8:	f04f 32ff 	mov.w	r2, #4294967295	@ 0xffffffff
 8001aac:	4939      	ldr	r1, [pc, #228]	@ (8001b94 <main+0x2a0>)
 8001aae:	4834      	ldr	r0, [pc, #208]	@ (8001b80 <main+0x28c>)
 8001ab0:	f7ff fead 	bl	800180e <serial_printf>
 8001ab4:	4b38      	ldr	r3, [pc, #224]	@ (8001b98 <main+0x2a4>)
 8001ab6:	241e      	movs	r4, #30
 8001ab8:	f04f 0800 	mov.w	r8, #0
 8001abc:	f813 b025 	ldrb.w	fp, [r3, r5, lsl #2]
 8001ac0:	2300      	movs	r3, #0
 8001ac2:	4a36      	ldr	r2, [pc, #216]	@ (8001b9c <main+0x2a8>)
 8001ac4:	4659      	mov	r1, fp
 8001ac6:	4830      	ldr	r0, [pc, #192]	@ (8001b88 <main+0x294>)
 8001ac8:	f8ca 3004 	str.w	r3, [sl, #4]
 8001acc:	4b34      	ldr	r3, [pc, #208]	@ (8001ba0 <main+0x2ac>)
 8001ace:	9301      	str	r3, [sp, #4]
 8001ad0:	2308      	movs	r3, #8
 8001ad2:	9300      	str	r3, [sp, #0]
 8001ad4:	4b33      	ldr	r3, [pc, #204]	@ (8001ba4 <main+0x2b0>)
 8001ad6:	f7fe fdcf 	bl	8000678 <ELIMAC>
 8001ada:	f8da 3004 	ldr.w	r3, [sl, #4]
 8001ade:	3c01      	subs	r4, #1
 8001ae0:	4498      	add	r8, r3
 8001ae2:	d1ed      	bne.n	8001ac0 <main+0x1cc>
 8001ae4:	231e      	movs	r3, #30
 8001ae6:	3501      	adds	r5, #1
 8001ae8:	fbb8 f3f3 	udiv	r3, r8, r3
 8001aec:	2d07      	cmp	r5, #7
 8001aee:	f849 3b04 	str.w	r3, [r9], #4
 8001af2:	d1df      	bne.n	8001ab4 <main+0x1c0>
 8001af4:	f8df a0a0 	ldr.w	sl, [pc, #160]	@ 8001b98 <main+0x2a4>
 8001af8:	4625      	mov	r5, r4
 8001afa:	f8df b0b4 	ldr.w	fp, [pc, #180]	@ 8001bb0 <main+0x2bc>
 8001afe:	f8df 8094 	ldr.w	r8, [pc, #148]	@ 8001b94 <main+0x2a0>
 8001b02:	f8df 907c 	ldr.w	r9, [pc, #124]	@ 8001b80 <main+0x28c>
 8001b06:	f85a 2b04 	ldr.w	r2, [sl], #4
 8001b0a:	4659      	mov	r1, fp
 8001b0c:	4640      	mov	r0, r8
 8001b0e:	f002 f839 	bl	8003b84 <siprintf>
 8001b12:	f04f 32ff 	mov.w	r2, #4294967295	@ 0xffffffff
 8001b16:	4641      	mov	r1, r8
 8001b18:	4648      	mov	r0, r9
 8001b1a:	f7ff fe78 	bl	800180e <serial_printf>
 8001b1e:	462a      	mov	r2, r5
 8001b20:	f857 3b04 	ldr.w	r3, [r7], #4
 8001b24:	4640      	mov	r0, r8
 8001b26:	4920      	ldr	r1, [pc, #128]	@ (8001ba8 <main+0x2b4>)
 8001b28:	3501      	adds	r5, #1
 8001b2a:	f002 f82b 	bl	8003b84 <siprintf>
 8001b2e:	f04f 32ff 	mov.w	r2, #4294967295	@ 0xffffffff
 8001b32:	4641      	mov	r1, r8
 8001b34:	4648      	mov	r0, r9
 8001b36:	f7ff fe6a 	bl	800180e <serial_printf>
 8001b3a:	2d07      	cmp	r5, #7
 8001b3c:	d1e3      	bne.n	8001b06 <main+0x212>
 8001b3e:	f806 4b01 	strb.w	r4, [r6], #1
 8001b42:	3401      	adds	r4, #1
 8001b44:	f5b4 5f80 	cmp.w	r4, #4096	@ 0x1000
 8001b48:	d1f9      	bne.n	8001b3e <main+0x24a>
 8001b4a:	2000      	movs	r0, #0
 8001b4c:	b00f      	add	sp, #60	@ 0x3c
 8001b4e:	e8bd 8ff0 	ldmia.w	sp!, {r4, r5, r6, r7, r8, r9, sl, fp, pc}
 8001b52:	bf00      	nop
 8001b54:	40023800 	.word	0x40023800
 8001b58:	40020400 	.word	0x40020400
 8001b5c:	40021800 	.word	0x40021800
 8001b60:	40020800 	.word	0x40020800
 8001b64:	20001bdc 	.word	0x20001bdc
 8001b68:	40028000 	.word	0x40028000
 8001b6c:	200001e4 	.word	0x200001e4
 8001b70:	20000088 	.word	0x20000088
 8001b74:	20000128 	.word	0x20000128
 8001b78:	20001c90 	.word	0x20001c90
 8001b7c:	40004800 	.word	0x40004800
 8001b80:	20001b54 	.word	0x20001b54
 8001b84:	20001674 	.word	0x20001674
 8001b88:	20000664 	.word	0x20000664
 8001b8c:	200001ec 	.word	0x200001ec
 8001b90:	08004c9e 	.word	0x08004c9e
 8001b94:	20000264 	.word	0x20000264
 8001b98:	08004cd4 	.word	0x08004cd4
 8001b9c:	20000010 	.word	0x20000010
 8001ba0:	20001664 	.word	0x20001664
 8001ba4:	20000000 	.word	0x20000000
 8001ba8:	08004cbd 	.word	0x08004cbd
 8001bac:	e0001000 	.word	0xe0001000
 8001bb0:	08004cb1 	.word	0x08004cb1

08001bb4 <Error_Handler>:
 8001bb4:	b672      	cpsid	i
 8001bb6:	e7fe      	b.n	8001bb6 <Error_Handler+0x2>

08001bb8 <HAL_MspInit>:
 8001bb8:	4b0a      	ldr	r3, [pc, #40]	@ (8001be4 <HAL_MspInit+0x2c>)
 8001bba:	b082      	sub	sp, #8
 8001bbc:	6c1a      	ldr	r2, [r3, #64]	@ 0x40
 8001bbe:	f042 5280 	orr.w	r2, r2, #268435456	@ 0x10000000
 8001bc2:	641a      	str	r2, [r3, #64]	@ 0x40
 8001bc4:	6c1a      	ldr	r2, [r3, #64]	@ 0x40
 8001bc6:	f002 5280 	and.w	r2, r2, #268435456	@ 0x10000000
 8001bca:	9200      	str	r2, [sp, #0]
 8001bcc:	9a00      	ldr	r2, [sp, #0]
 8001bce:	6c5a      	ldr	r2, [r3, #68]	@ 0x44
 8001bd0:	f442 4280 	orr.w	r2, r2, #16384	@ 0x4000
 8001bd4:	645a      	str	r2, [r3, #68]	@ 0x44
 8001bd6:	6c5b      	ldr	r3, [r3, #68]	@ 0x44
 8001bd8:	f403 4380 	and.w	r3, r3, #16384	@ 0x4000
 8001bdc:	9301      	str	r3, [sp, #4]
 8001bde:	9b01      	ldr	r3, [sp, #4]
 8001be0:	b002      	add	sp, #8
 8001be2:	4770      	bx	lr
 8001be4:	40023800 	.word	0x40023800

08001be8 <HAL_ETH_MspInit>:
 8001be8:	b5f0      	push	{r4, r5, r6, r7, lr}
 8001bea:	b08d      	sub	sp, #52	@ 0x34
 8001bec:	4604      	mov	r4, r0
 8001bee:	2214      	movs	r2, #20
 8001bf0:	2100      	movs	r1, #0
 8001bf2:	a807      	add	r0, sp, #28
 8001bf4:	f002 f829 	bl	8003c4a <memset>
 8001bf8:	6822      	ldr	r2, [r4, #0]
 8001bfa:	4b39      	ldr	r3, [pc, #228]	@ (8001ce0 <HAL_ETH_MspInit+0xf8>)
 8001bfc:	429a      	cmp	r2, r3
 8001bfe:	d16d      	bne.n	8001cdc <HAL_ETH_MspInit+0xf4>
 8001c00:	f5a3 4390 	sub.w	r3, r3, #18432	@ 0x4800
 8001c04:	2602      	movs	r6, #2
 8001c06:	2503      	movs	r5, #3
 8001c08:	240b      	movs	r4, #11
 8001c0a:	6b1a      	ldr	r2, [r3, #48]	@ 0x30
 8001c0c:	a907      	add	r1, sp, #28
 8001c0e:	4835      	ldr	r0, [pc, #212]	@ (8001ce4 <HAL_ETH_MspInit+0xfc>)
 8001c10:	2700      	movs	r7, #0
 8001c12:	f042 7200 	orr.w	r2, r2, #33554432	@ 0x2000000
 8001c16:	631a      	str	r2, [r3, #48]	@ 0x30
 8001c18:	6b1a      	ldr	r2, [r3, #48]	@ 0x30
 8001c1a:	f002 7200 	and.w	r2, r2, #33554432	@ 0x2000000
 8001c1e:	9200      	str	r2, [sp, #0]
 8001c20:	9a00      	ldr	r2, [sp, #0]
 8001c22:	6b1a      	ldr	r2, [r3, #48]	@ 0x30
 8001c24:	f042 6280 	orr.w	r2, r2, #67108864	@ 0x4000000
 8001c28:	631a      	str	r2, [r3, #48]	@ 0x30
 8001c2a:	6b1a      	ldr	r2, [r3, #48]	@ 0x30
 8001c2c:	f002 6280 	and.w	r2, r2, #67108864	@ 0x4000000
 8001c30:	9201      	str	r2, [sp, #4]
 8001c32:	9a01      	ldr	r2, [sp, #4]
 8001c34:	6b1a      	ldr	r2, [r3, #48]	@ 0x30
 8001c36:	f042 6200 	orr.w	r2, r2, #134217728	@ 0x8000000
 8001c3a:	631a      	str	r2, [r3, #48]	@ 0x30
 8001c3c:	6b1a      	ldr	r2, [r3, #48]	@ 0x30
 8001c3e:	f002 6200 	and.w	r2, r2, #134217728	@ 0x8000000
 8001c42:	9202      	str	r2, [sp, #8]
 8001c44:	9a02      	ldr	r2, [sp, #8]
 8001c46:	6b1a      	ldr	r2, [r3, #48]	@ 0x30
 8001c48:	f042 0204 	orr.w	r2, r2, #4
 8001c4c:	631a      	str	r2, [r3, #48]	@ 0x30
 8001c4e:	6b1a      	ldr	r2, [r3, #48]	@ 0x30
 8001c50:	f002 0204 	and.w	r2, r2, #4
 8001c54:	9203      	str	r2, [sp, #12]
 8001c56:	9a03      	ldr	r2, [sp, #12]
 8001c58:	6b1a      	ldr	r2, [r3, #48]	@ 0x30
 8001c5a:	f042 0201 	orr.w	r2, r2, #1
 8001c5e:	631a      	str	r2, [r3, #48]	@ 0x30
 8001c60:	6b1a      	ldr	r2, [r3, #48]	@ 0x30
 8001c62:	f002 0201 	and.w	r2, r2, #1
 8001c66:	9204      	str	r2, [sp, #16]
 8001c68:	9a04      	ldr	r2, [sp, #16]
 8001c6a:	6b1a      	ldr	r2, [r3, #48]	@ 0x30
 8001c6c:	f042 0202 	orr.w	r2, r2, #2
 8001c70:	631a      	str	r2, [r3, #48]	@ 0x30
 8001c72:	6b1a      	ldr	r2, [r3, #48]	@ 0x30
 8001c74:	f002 0202 	and.w	r2, r2, #2
 8001c78:	9205      	str	r2, [sp, #20]
 8001c7a:	9a05      	ldr	r2, [sp, #20]
 8001c7c:	6b1a      	ldr	r2, [r3, #48]	@ 0x30
 8001c7e:	f042 0240 	orr.w	r2, r2, #64	@ 0x40
 8001c82:	631a      	str	r2, [r3, #48]	@ 0x30
 8001c84:	6b1b      	ldr	r3, [r3, #48]	@ 0x30
 8001c86:	f003 0340 	and.w	r3, r3, #64	@ 0x40
 8001c8a:	9306      	str	r3, [sp, #24]
 8001c8c:	9b06      	ldr	r3, [sp, #24]
 8001c8e:	2332      	movs	r3, #50	@ 0x32
 8001c90:	e9cd 540a 	strd	r5, r4, [sp, #40]	@ 0x28
 8001c94:	e9cd 3607 	strd	r3, r6, [sp, #28]
 8001c98:	f000 fbba 	bl	8002410 <HAL_GPIO_Init>
 8001c9c:	2386      	movs	r3, #134	@ 0x86
 8001c9e:	a907      	add	r1, sp, #28
 8001ca0:	4811      	ldr	r0, [pc, #68]	@ (8001ce8 <HAL_ETH_MspInit+0x100>)
 8001ca2:	940b      	str	r4, [sp, #44]	@ 0x2c
 8001ca4:	e9cd 3607 	strd	r3, r6, [sp, #28]
 8001ca8:	e9cd 7509 	strd	r7, r5, [sp, #36]	@ 0x24
 8001cac:	f000 fbb0 	bl	8002410 <HAL_GPIO_Init>
 8001cb0:	f44f 5300 	mov.w	r3, #8192	@ 0x2000
 8001cb4:	a907      	add	r1, sp, #28
 8001cb6:	480d      	ldr	r0, [pc, #52]	@ (8001cec <HAL_ETH_MspInit+0x104>)
 8001cb8:	940b      	str	r4, [sp, #44]	@ 0x2c
 8001cba:	e9cd 3607 	strd	r3, r6, [sp, #28]
 8001cbe:	e9cd 7509 	strd	r7, r5, [sp, #36]	@ 0x24
 8001cc2:	f000 fba5 	bl	8002410 <HAL_GPIO_Init>
 8001cc6:	f44f 5320 	mov.w	r3, #10240	@ 0x2800
 8001cca:	a907      	add	r1, sp, #28
 8001ccc:	4808      	ldr	r0, [pc, #32]	@ (8001cf0 <HAL_ETH_MspInit+0x108>)
 8001cce:	940b      	str	r4, [sp, #44]	@ 0x2c
 8001cd0:	e9cd 3607 	strd	r3, r6, [sp, #28]
 8001cd4:	e9cd 7509 	strd	r7, r5, [sp, #36]	@ 0x24
 8001cd8:	f000 fb9a 	bl	8002410 <HAL_GPIO_Init>
 8001cdc:	b00d      	add	sp, #52	@ 0x34
 8001cde:	bdf0      	pop	{r4, r5, r6, r7, pc}
 8001ce0:	40028000 	.word	0x40028000
 8001ce4:	40020800 	.word	0x40020800
 8001ce8:	40020000 	.word	0x40020000
 8001cec:	40020400 	.word	0x40020400
 8001cf0:	40021800 	.word	0x40021800

08001cf4 <HAL_UART_MspInit>:
 8001cf4:	b510      	push	{r4, lr}
 8001cf6:	b0a8      	sub	sp, #160	@ 0xa0
 8001cf8:	4604      	mov	r4, r0
 8001cfa:	2214      	movs	r2, #20
 8001cfc:	2100      	movs	r1, #0
 8001cfe:	a802      	add	r0, sp, #8
 8001d00:	f001 ffa3 	bl	8003c4a <memset>
 8001d04:	2284      	movs	r2, #132	@ 0x84
 8001d06:	2100      	movs	r1, #0
 8001d08:	a807      	add	r0, sp, #28
 8001d0a:	f001 ff9e 	bl	8003c4a <memset>
 8001d0e:	6822      	ldr	r2, [r4, #0]
 8001d10:	4b17      	ldr	r3, [pc, #92]	@ (8001d70 <HAL_UART_MspInit+0x7c>)
 8001d12:	429a      	cmp	r2, r3
 8001d14:	d12a      	bne.n	8001d6c <HAL_UART_MspInit+0x78>
 8001d16:	f44f 7380 	mov.w	r3, #256	@ 0x100
 8001d1a:	a807      	add	r0, sp, #28
 8001d1c:	9307      	str	r3, [sp, #28]
 8001d1e:	f000 ff95 	bl	8002c4c <HAL_RCCEx_PeriphCLKConfig>
 8001d22:	b108      	cbz	r0, 8001d28 <HAL_UART_MspInit+0x34>
 8001d24:	f7ff ff46 	bl	8001bb4 <Error_Handler>
 8001d28:	4b12      	ldr	r3, [pc, #72]	@ (8001d74 <HAL_UART_MspInit+0x80>)
 8001d2a:	2100      	movs	r1, #0
 8001d2c:	4812      	ldr	r0, [pc, #72]	@ (8001d78 <HAL_UART_MspInit+0x84>)
 8001d2e:	6c1a      	ldr	r2, [r3, #64]	@ 0x40
 8001d30:	f442 2280 	orr.w	r2, r2, #262144	@ 0x40000
 8001d34:	641a      	str	r2, [r3, #64]	@ 0x40
 8001d36:	6c1a      	ldr	r2, [r3, #64]	@ 0x40
 8001d38:	f402 2280 	and.w	r2, r2, #262144	@ 0x40000
 8001d3c:	9200      	str	r2, [sp, #0]
 8001d3e:	9a00      	ldr	r2, [sp, #0]
 8001d40:	6b1a      	ldr	r2, [r3, #48]	@ 0x30
 8001d42:	f042 0208 	orr.w	r2, r2, #8
 8001d46:	631a      	str	r2, [r3, #48]	@ 0x30
 8001d48:	f44f 7240 	mov.w	r2, #768	@ 0x300
 8001d4c:	6b1b      	ldr	r3, [r3, #48]	@ 0x30
 8001d4e:	f003 0308 	and.w	r3, r3, #8
 8001d52:	9301      	str	r3, [sp, #4]
 8001d54:	9b01      	ldr	r3, [sp, #4]
 8001d56:	2302      	movs	r3, #2
 8001d58:	e9cd 2302 	strd	r2, r3, [sp, #8]
 8001d5c:	2303      	movs	r3, #3
 8001d5e:	e9cd 1304 	strd	r1, r3, [sp, #16]
 8001d62:	2307      	movs	r3, #7
 8001d64:	a902      	add	r1, sp, #8
 8001d66:	9306      	str	r3, [sp, #24]
 8001d68:	f000 fb52 	bl	8002410 <HAL_GPIO_Init>
 8001d6c:	b028      	add	sp, #160	@ 0xa0
 8001d6e:	bd10      	pop	{r4, pc}
 8001d70:	40004800 	.word	0x40004800
 8001d74:	40023800 	.word	0x40023800
 8001d78:	40020c00 	.word	0x40020c00

08001d7c <HAL_PCD_MspInit>:
 8001d7c:	b530      	push	{r4, r5, lr}
 8001d7e:	b0ab      	sub	sp, #172	@ 0xac
 8001d80:	4604      	mov	r4, r0
 8001d82:	2214      	movs	r2, #20
 8001d84:	2100      	movs	r1, #0
 8001d86:	a804      	add	r0, sp, #16
 8001d88:	f001 ff5f 	bl	8003c4a <memset>
 8001d8c:	2284      	movs	r2, #132	@ 0x84
 8001d8e:	2100      	movs	r1, #0
 8001d90:	a809      	add	r0, sp, #36	@ 0x24
 8001d92:	f001 ff5a 	bl	8003c4a <memset>
 8001d96:	6823      	ldr	r3, [r4, #0]
 8001d98:	f1b3 4fa0 	cmp.w	r3, #1342177280	@ 0x50000000
 8001d9c:	d13c      	bne.n	8001e18 <HAL_PCD_MspInit+0x9c>
 8001d9e:	f44f 1300 	mov.w	r3, #2097152	@ 0x200000
 8001da2:	a809      	add	r0, sp, #36	@ 0x24
 8001da4:	9309      	str	r3, [sp, #36]	@ 0x24
 8001da6:	f000 ff51 	bl	8002c4c <HAL_RCCEx_PeriphCLKConfig>
 8001daa:	b108      	cbz	r0, 8001db0 <HAL_PCD_MspInit+0x34>
 8001dac:	f7ff ff02 	bl	8001bb4 <Error_Handler>
 8001db0:	4c1a      	ldr	r4, [pc, #104]	@ (8001e1c <HAL_PCD_MspInit+0xa0>)
 8001db2:	f44f 52e8 	mov.w	r2, #7424	@ 0x1d00
 8001db6:	2500      	movs	r5, #0
 8001db8:	a904      	add	r1, sp, #16
 8001dba:	6b23      	ldr	r3, [r4, #48]	@ 0x30
 8001dbc:	4818      	ldr	r0, [pc, #96]	@ (8001e20 <HAL_PCD_MspInit+0xa4>)
 8001dbe:	f043 0301 	orr.w	r3, r3, #1
 8001dc2:	6323      	str	r3, [r4, #48]	@ 0x30
 8001dc4:	6b23      	ldr	r3, [r4, #48]	@ 0x30
 8001dc6:	f003 0301 	and.w	r3, r3, #1
 8001dca:	9301      	str	r3, [sp, #4]
 8001dcc:	9b01      	ldr	r3, [sp, #4]
 8001dce:	2302      	movs	r3, #2
 8001dd0:	e9cd 2304 	strd	r2, r3, [sp, #16]
 8001dd4:	2303      	movs	r3, #3
 8001dd6:	e9cd 5306 	strd	r5, r3, [sp, #24]
 8001dda:	230a      	movs	r3, #10
 8001ddc:	9308      	str	r3, [sp, #32]
 8001dde:	f000 fb17 	bl	8002410 <HAL_GPIO_Init>
 8001de2:	f44f 7300 	mov.w	r3, #512	@ 0x200
 8001de6:	a904      	add	r1, sp, #16
 8001de8:	480d      	ldr	r0, [pc, #52]	@ (8001e20 <HAL_PCD_MspInit+0xa4>)
 8001dea:	9506      	str	r5, [sp, #24]
 8001dec:	e9cd 3504 	strd	r3, r5, [sp, #16]
 8001df0:	f000 fb0e 	bl	8002410 <HAL_GPIO_Init>
 8001df4:	6b63      	ldr	r3, [r4, #52]	@ 0x34
 8001df6:	f043 0380 	orr.w	r3, r3, #128	@ 0x80
 8001dfa:	6363      	str	r3, [r4, #52]	@ 0x34
 8001dfc:	6b63      	ldr	r3, [r4, #52]	@ 0x34
 8001dfe:	f003 0380 	and.w	r3, r3, #128	@ 0x80
 8001e02:	9302      	str	r3, [sp, #8]
 8001e04:	9b02      	ldr	r3, [sp, #8]
 8001e06:	6c63      	ldr	r3, [r4, #68]	@ 0x44
 8001e08:	f443 4380 	orr.w	r3, r3, #16384	@ 0x4000
 8001e0c:	6463      	str	r3, [r4, #68]	@ 0x44
 8001e0e:	6c63      	ldr	r3, [r4, #68]	@ 0x44
 8001e10:	f403 4380 	and.w	r3, r3, #16384	@ 0x4000
 8001e14:	9303      	str	r3, [sp, #12]
 8001e16:	9b03      	ldr	r3, [sp, #12]
 8001e18:	b02b      	add	sp, #172	@ 0xac
 8001e1a:	bd30      	pop	{r4, r5, pc}
 8001e1c:	40023800 	.word	0x40023800
 8001e20:	40020000 	.word	0x40020000

08001e24 <NMI_Handler>:
 8001e24:	e7fe      	b.n	8001e24 <NMI_Handler>

08001e26 <HardFault_Handler>:
 8001e26:	e7fe      	b.n	8001e26 <HardFault_Handler>

08001e28 <MemManage_Handler>:
 8001e28:	e7fe      	b.n	8001e28 <MemManage_Handler>

08001e2a <BusFault_Handler>:
 8001e2a:	e7fe      	b.n	8001e2a <BusFault_Handler>

08001e2c <UsageFault_Handler>:
 8001e2c:	e7fe      	b.n	8001e2c <UsageFault_Handler>

08001e2e <SVC_Handler>:
 8001e2e:	4770      	bx	lr

08001e30 <DebugMon_Handler>:
 8001e30:	4770      	bx	lr

08001e32 <PendSV_Handler>:
 8001e32:	4770      	bx	lr

08001e34 <SysTick_Handler>:
 8001e34:	f000 b8ac 	b.w	8001f90 <HAL_IncTick>

08001e38 <_read>:
 8001e38:	b570      	push	{r4, r5, r6, lr}
 8001e3a:	460d      	mov	r5, r1
 8001e3c:	4614      	mov	r4, r2
 8001e3e:	460e      	mov	r6, r1
 8001e40:	1b73      	subs	r3, r6, r5
 8001e42:	429c      	cmp	r4, r3
 8001e44:	dc01      	bgt.n	8001e4a <_read+0x12>
 8001e46:	4620      	mov	r0, r4
 8001e48:	bd70      	pop	{r4, r5, r6, pc}
 8001e4a:	f3af 8000 	nop.w
 8001e4e:	f806 0b01 	strb.w	r0, [r6], #1
 8001e52:	e7f5      	b.n	8001e40 <_read+0x8>

08001e54 <_write>:
 8001e54:	b570      	push	{r4, r5, r6, lr}
 8001e56:	460d      	mov	r5, r1
 8001e58:	4614      	mov	r4, r2
 8001e5a:	460e      	mov	r6, r1
 8001e5c:	1b73      	subs	r3, r6, r5
 8001e5e:	429c      	cmp	r4, r3
 8001e60:	dc01      	bgt.n	8001e66 <_write+0x12>
 8001e62:	4620      	mov	r0, r4
 8001e64:	bd70      	pop	{r4, r5, r6, pc}
 8001e66:	f816 0b01 	ldrb.w	r0, [r6], #1
 8001e6a:	f3af 8000 	nop.w
 8001e6e:	e7f5      	b.n	8001e5c <_write+0x8>

08001e70 <_close>:
 8001e70:	f04f 30ff 	mov.w	r0, #4294967295	@ 0xffffffff
 8001e74:	4770      	bx	lr

08001e76 <_fstat>:
 8001e76:	f44f 5300 	mov.w	r3, #8192	@ 0x2000
 8001e7a:	2000      	movs	r0, #0
 8001e7c:	604b      	str	r3, [r1, #4]
 8001e7e:	4770      	bx	lr

08001e80 <_isatty>:
 8001e80:	2001      	movs	r0, #1
 8001e82:	4770      	bx	lr

08001e84 <_lseek>:
 8001e84:	2000      	movs	r0, #0
 8001e86:	4770      	bx	lr

08001e88 <_sbrk>:
 8001e88:	4a0b      	ldr	r2, [pc, #44]	@ (8001eb8 <_sbrk+0x30>)
 8001e8a:	4603      	mov	r3, r0
 8001e8c:	6811      	ldr	r1, [r2, #0]
 8001e8e:	b510      	push	{r4, lr}
 8001e90:	b909      	cbnz	r1, 8001e96 <_sbrk+0xe>
 8001e92:	490a      	ldr	r1, [pc, #40]	@ (8001ebc <_sbrk+0x34>)
 8001e94:	6011      	str	r1, [r2, #0]
 8001e96:	6810      	ldr	r0, [r2, #0]
 8001e98:	4909      	ldr	r1, [pc, #36]	@ (8001ec0 <_sbrk+0x38>)
 8001e9a:	4c0a      	ldr	r4, [pc, #40]	@ (8001ec4 <_sbrk+0x3c>)
 8001e9c:	4403      	add	r3, r0
 8001e9e:	1b09      	subs	r1, r1, r4
 8001ea0:	428b      	cmp	r3, r1
 8001ea2:	d906      	bls.n	8001eb2 <_sbrk+0x2a>
 8001ea4:	f001 ff20 	bl	8003ce8 <__errno>
 8001ea8:	230c      	movs	r3, #12
 8001eaa:	6003      	str	r3, [r0, #0]
 8001eac:	f04f 30ff 	mov.w	r0, #4294967295	@ 0xffffffff
 8001eb0:	bd10      	pop	{r4, pc}
 8001eb2:	6013      	str	r3, [r2, #0]
 8001eb4:	e7fc      	b.n	8001eb0 <_sbrk+0x28>
 8001eb6:	bf00      	nop
 8001eb8:	20001cc4 	.word	0x20001cc4
 8001ebc:	20001e18 	.word	0x20001e18
 8001ec0:	20050000 	.word	0x20050000
 8001ec4:	00000400 	.word	0x00000400

08001ec8 <SystemInit>:
 8001ec8:	4a03      	ldr	r2, [pc, #12]	@ (8001ed8 <SystemInit+0x10>)
 8001eca:	f8d2 3088 	ldr.w	r3, [r2, #136]	@ 0x88
 8001ece:	f443 0370 	orr.w	r3, r3, #15728640	@ 0xf00000
 8001ed2:	f8c2 3088 	str.w	r3, [r2, #136]	@ 0x88
 8001ed6:	4770      	bx	lr
 8001ed8:	e000ed00 	.word	0xe000ed00

08001edc <Reset_Handler>:
 8001edc:	f8df d034 	ldr.w	sp, [pc, #52]	@ 8001f14 <LoopFillZerobss+0xe>
 8001ee0:	f7ff fff2 	bl	8001ec8 <SystemInit>
 8001ee4:	480c      	ldr	r0, [pc, #48]	@ (8001f18 <LoopFillZerobss+0x12>)
 8001ee6:	490d      	ldr	r1, [pc, #52]	@ (8001f1c <LoopFillZerobss+0x16>)
 8001ee8:	4a0d      	ldr	r2, [pc, #52]	@ (8001f20 <LoopFillZerobss+0x1a>)
 8001eea:	2300      	movs	r3, #0
 8001eec:	e002      	b.n	8001ef4 <LoopCopyDataInit>

08001eee <CopyDataInit>:
 8001eee:	58d4      	ldr	r4, [r2, r3]
 8001ef0:	50c4      	str	r4, [r0, r3]
 8001ef2:	3304      	adds	r3, #4

08001ef4 <LoopCopyDataInit>:
 8001ef4:	18c4      	adds	r4, r0, r3
 8001ef6:	428c      	cmp	r4, r1
 8001ef8:	d3f9      	bcc.n	8001eee <CopyDataInit>
 8001efa:	4a0a      	ldr	r2, [pc, #40]	@ (8001f24 <LoopFillZerobss+0x1e>)
 8001efc:	4c0a      	ldr	r4, [pc, #40]	@ (8001f28 <LoopFillZerobss+0x22>)
 8001efe:	2300      	movs	r3, #0
 8001f00:	e001      	b.n	8001f06 <LoopFillZerobss>

08001f02 <FillZerobss>:
 8001f02:	6013      	str	r3, [r2, #0]
 8001f04:	3204      	adds	r2, #4

08001f06 <LoopFillZerobss>:
 8001f06:	42a2      	cmp	r2, r4
 8001f08:	d3fb      	bcc.n	8001f02 <FillZerobss>
 8001f0a:	f001 fef3 	bl	8003cf4 <__libc_init_array>
 8001f0e:	f7ff fcf1 	bl	80018f4 <main>
 8001f12:	4770      	bx	lr
 8001f14:	20050000 	.word	0x20050000
 8001f18:	20000000 	.word	0x20000000
 8001f1c:	20000088 	.word	0x20000088
 8001f20:	08004d4c 	.word	0x08004d4c
 8001f24:	200001c8 	.word	0x200001c8
 8001f28:	20001e18 	.word	0x20001e18

08001f2c <ADC_IRQHandler>:
 8001f2c:	e7fe      	b.n	8001f2c <ADC_IRQHandler>
	...

08001f30 <HAL_InitTick>:
 8001f30:	b538      	push	{r3, r4, r5, lr}
 8001f32:	4b0e      	ldr	r3, [pc, #56]	@ (8001f6c <HAL_InitTick+0x3c>)
 8001f34:	4605      	mov	r5, r0
 8001f36:	781a      	ldrb	r2, [r3, #0]
 8001f38:	f44f 737a 	mov.w	r3, #1000	@ 0x3e8
 8001f3c:	fbb3 f3f2 	udiv	r3, r3, r2
 8001f40:	4a0b      	ldr	r2, [pc, #44]	@ (8001f70 <HAL_InitTick+0x40>)
 8001f42:	6810      	ldr	r0, [r2, #0]
 8001f44:	fbb0 f0f3 	udiv	r0, r0, r3
 8001f48:	f000 f88a 	bl	8002060 <HAL_SYSTICK_Config>
 8001f4c:	4604      	mov	r4, r0
 8001f4e:	b958      	cbnz	r0, 8001f68 <HAL_InitTick+0x38>
 8001f50:	2d0f      	cmp	r5, #15
 8001f52:	d809      	bhi.n	8001f68 <HAL_InitTick+0x38>
 8001f54:	4602      	mov	r2, r0
 8001f56:	4629      	mov	r1, r5
 8001f58:	f04f 30ff 	mov.w	r0, #4294967295	@ 0xffffffff
 8001f5c:	f000 f84e 	bl	8001ffc <HAL_NVIC_SetPriority>
 8001f60:	4b04      	ldr	r3, [pc, #16]	@ (8001f74 <HAL_InitTick+0x44>)
 8001f62:	4620      	mov	r0, r4
 8001f64:	601d      	str	r5, [r3, #0]
 8001f66:	bd38      	pop	{r3, r4, r5, pc}
 8001f68:	2001      	movs	r0, #1
 8001f6a:	e7fc      	b.n	8001f66 <HAL_InitTick+0x36>
 8001f6c:	20000024 	.word	0x20000024
 8001f70:	20000020 	.word	0x20000020
 8001f74:	20000028 	.word	0x20000028

08001f78 <HAL_Init>:
 8001f78:	b508      	push	{r3, lr}
 8001f7a:	2003      	movs	r0, #3
 8001f7c:	f000 f82c 	bl	8001fd8 <HAL_NVIC_SetPriorityGrouping>
 8001f80:	2000      	movs	r0, #0
 8001f82:	f7ff ffd5 	bl	8001f30 <HAL_InitTick>
 8001f86:	f7ff fe17 	bl	8001bb8 <HAL_MspInit>
 8001f8a:	2000      	movs	r0, #0
 8001f8c:	bd08      	pop	{r3, pc}
	...

08001f90 <HAL_IncTick>:
 8001f90:	4a03      	ldr	r2, [pc, #12]	@ (8001fa0 <HAL_IncTick+0x10>)
 8001f92:	4b04      	ldr	r3, [pc, #16]	@ (8001fa4 <HAL_IncTick+0x14>)
 8001f94:	6811      	ldr	r1, [r2, #0]
 8001f96:	781b      	ldrb	r3, [r3, #0]
 8001f98:	440b      	add	r3, r1
 8001f9a:	6013      	str	r3, [r2, #0]
 8001f9c:	4770      	bx	lr
 8001f9e:	bf00      	nop
 8001fa0:	20001cc8 	.word	0x20001cc8
 8001fa4:	20000024 	.word	0x20000024

08001fa8 <HAL_GetTick>:
 8001fa8:	4b01      	ldr	r3, [pc, #4]	@ (8001fb0 <HAL_GetTick+0x8>)
 8001faa:	6818      	ldr	r0, [r3, #0]
 8001fac:	4770      	bx	lr
 8001fae:	bf00      	nop
 8001fb0:	20001cc8 	.word	0x20001cc8

08001fb4 <HAL_Delay>:
 8001fb4:	b538      	push	{r3, r4, r5, lr}
 8001fb6:	4604      	mov	r4, r0
 8001fb8:	f7ff fff6 	bl	8001fa8 <HAL_GetTick>
 8001fbc:	4605      	mov	r5, r0
 8001fbe:	1c63      	adds	r3, r4, #1
 8001fc0:	bf1e      	ittt	ne
 8001fc2:	4b04      	ldrne	r3, [pc, #16]	@ (8001fd4 <HAL_Delay+0x20>)
 8001fc4:	781b      	ldrbne	r3, [r3, #0]
 8001fc6:	18e4      	addne	r4, r4, r3
 8001fc8:	f7ff ffee 	bl	8001fa8 <HAL_GetTick>
 8001fcc:	1b43      	subs	r3, r0, r5
 8001fce:	42a3      	cmp	r3, r4
 8001fd0:	d3fa      	bcc.n	8001fc8 <HAL_Delay+0x14>
 8001fd2:	bd38      	pop	{r3, r4, r5, pc}
 8001fd4:	20000024 	.word	0x20000024

08001fd8 <HAL_NVIC_SetPriorityGrouping>:
 8001fd8:	4907      	ldr	r1, [pc, #28]	@ (8001ff8 <HAL_NVIC_SetPriorityGrouping+0x20>)
 8001fda:	0203      	lsls	r3, r0, #8
 8001fdc:	68ca      	ldr	r2, [r1, #12]
 8001fde:	f403 63e0 	and.w	r3, r3, #1792	@ 0x700
 8001fe2:	f422 62e0 	bic.w	r2, r2, #1792	@ 0x700
 8001fe6:	0412      	lsls	r2, r2, #16
 8001fe8:	0c12      	lsrs	r2, r2, #16
 8001fea:	4313      	orrs	r3, r2
 8001fec:	f043 63bf 	orr.w	r3, r3, #100139008	@ 0x5f80000
 8001ff0:	f443 3300 	orr.w	r3, r3, #131072	@ 0x20000
 8001ff4:	60cb      	str	r3, [r1, #12]
 8001ff6:	4770      	bx	lr
 8001ff8:	e000ed00 	.word	0xe000ed00

08001ffc <HAL_NVIC_SetPriority>:
 8001ffc:	4b16      	ldr	r3, [pc, #88]	@ (8002058 <HAL_NVIC_SetPriority+0x5c>)
 8001ffe:	b530      	push	{r4, r5, lr}
 8002000:	68dc      	ldr	r4, [r3, #12]
 8002002:	f3c4 2402 	ubfx	r4, r4, #8, #3
 8002006:	f1c4 0307 	rsb	r3, r4, #7
 800200a:	1d25      	adds	r5, r4, #4
 800200c:	2b04      	cmp	r3, #4
 800200e:	bf28      	it	cs
 8002010:	2304      	movcs	r3, #4
 8002012:	2d06      	cmp	r5, #6
 8002014:	f04f 35ff 	mov.w	r5, #4294967295	@ 0xffffffff
 8002018:	bf8c      	ite	hi
 800201a:	3c03      	subhi	r4, #3
 800201c:	2400      	movls	r4, #0
 800201e:	fa05 f303 	lsl.w	r3, r5, r3
 8002022:	2800      	cmp	r0, #0
 8002024:	fa05 f504 	lsl.w	r5, r5, r4
 8002028:	ea21 0303 	bic.w	r3, r1, r3
 800202c:	ea22 0205 	bic.w	r2, r2, r5
 8002030:	fa03 f304 	lsl.w	r3, r3, r4
 8002034:	ea43 0302 	orr.w	r3, r3, r2
 8002038:	ea4f 1303 	mov.w	r3, r3, lsl #4
 800203c:	b2db      	uxtb	r3, r3
 800203e:	db06      	blt.n	800204e <HAL_NVIC_SetPriority+0x52>
 8002040:	f100 4060 	add.w	r0, r0, #3758096384	@ 0xe0000000
 8002044:	f500 4061 	add.w	r0, r0, #57600	@ 0xe100
 8002048:	f880 3300 	strb.w	r3, [r0, #768]	@ 0x300
 800204c:	bd30      	pop	{r4, r5, pc}
 800204e:	f000 000f 	and.w	r0, r0, #15
 8002052:	4a02      	ldr	r2, [pc, #8]	@ (800205c <HAL_NVIC_SetPriority+0x60>)
 8002054:	5413      	strb	r3, [r2, r0]
 8002056:	e7f9      	b.n	800204c <HAL_NVIC_SetPriority+0x50>
 8002058:	e000ed00 	.word	0xe000ed00
 800205c:	e000ed14 	.word	0xe000ed14

08002060 <HAL_SYSTICK_Config>:
 8002060:	3801      	subs	r0, #1
 8002062:	f1b0 7f80 	cmp.w	r0, #16777216	@ 0x1000000
 8002066:	d20b      	bcs.n	8002080 <HAL_SYSTICK_Config+0x20>
 8002068:	f04f 23e0 	mov.w	r3, #3758153728	@ 0xe000e000
 800206c:	4a05      	ldr	r2, [pc, #20]	@ (8002084 <HAL_SYSTICK_Config+0x24>)
 800206e:	21f0      	movs	r1, #240	@ 0xf0
 8002070:	6158      	str	r0, [r3, #20]
 8002072:	2000      	movs	r0, #0
 8002074:	f882 1023 	strb.w	r1, [r2, #35]	@ 0x23
 8002078:	2207      	movs	r2, #7
 800207a:	6198      	str	r0, [r3, #24]
 800207c:	611a      	str	r2, [r3, #16]
 800207e:	4770      	bx	lr
 8002080:	2001      	movs	r0, #1
 8002082:	4770      	bx	lr
 8002084:	e000ed00 	.word	0xe000ed00

08002088 <ETH_SetMACConfig>:
 8002088:	b570      	push	{r4, r5, r6, lr}
 800208a:	460d      	mov	r5, r1
 800208c:	6802      	ldr	r2, [r0, #0]
 800208e:	4604      	mov	r4, r0
 8002090:	68ab      	ldr	r3, [r5, #8]
 8002092:	6968      	ldr	r0, [r5, #20]
 8002094:	6811      	ldr	r1, [r2, #0]
 8002096:	4303      	orrs	r3, r0
 8002098:	69a8      	ldr	r0, [r5, #24]
 800209a:	4303      	orrs	r3, r0
 800209c:	6a68      	ldr	r0, [r5, #36]	@ 0x24
 800209e:	4303      	orrs	r3, r0
 80020a0:	7ba8      	ldrb	r0, [r5, #14]
 80020a2:	ea43 6340 	orr.w	r3, r3, r0, lsl #25
 80020a6:	7fe8      	ldrb	r0, [r5, #31]
 80020a8:	ea43 4300 	orr.w	r3, r3, r0, lsl #16
 80020ac:	7f28      	ldrb	r0, [r5, #28]
 80020ae:	ea43 3300 	orr.w	r3, r3, r0, lsl #12
 80020b2:	7928      	ldrb	r0, [r5, #4]
 80020b4:	ea43 2380 	orr.w	r3, r3, r0, lsl #10
 80020b8:	7be8      	ldrb	r0, [r5, #15]
 80020ba:	ea43 13c0 	orr.w	r3, r3, r0, lsl #7
 80020be:	f895 0028 	ldrb.w	r0, [r5, #40]	@ 0x28
 80020c2:	ea43 1300 	orr.w	r3, r3, r0, lsl #4
 80020c6:	482a      	ldr	r0, [pc, #168]	@ (8002170 <ETH_SetMACConfig+0xe8>)
 80020c8:	4008      	ands	r0, r1
 80020ca:	7c29      	ldrb	r1, [r5, #16]
 80020cc:	fab1 f181 	clz	r1, r1
 80020d0:	4303      	orrs	r3, r0
 80020d2:	2001      	movs	r0, #1
 80020d4:	0949      	lsrs	r1, r1, #5
 80020d6:	ea43 53c1 	orr.w	r3, r3, r1, lsl #23
 80020da:	7c69      	ldrb	r1, [r5, #17]
 80020dc:	fab1 f181 	clz	r1, r1
 80020e0:	0949      	lsrs	r1, r1, #5
 80020e2:	ea43 5381 	orr.w	r3, r3, r1, lsl #22
 80020e6:	7fa9      	ldrb	r1, [r5, #30]
 80020e8:	fab1 f181 	clz	r1, r1
 80020ec:	0949      	lsrs	r1, r1, #5
 80020ee:	ea43 3341 	orr.w	r3, r3, r1, lsl #13
 80020f2:	f895 1020 	ldrb.w	r1, [r5, #32]
 80020f6:	fab1 f181 	clz	r1, r1
 80020fa:	0949      	lsrs	r1, r1, #5
 80020fc:	ea43 2341 	orr.w	r3, r3, r1, lsl #9
 8002100:	6013      	str	r3, [r2, #0]
 8002102:	6816      	ldr	r6, [r2, #0]
 8002104:	f7ff ff56 	bl	8001fb4 <HAL_Delay>
 8002108:	6821      	ldr	r1, [r4, #0]
 800210a:	6ca8      	ldr	r0, [r5, #72]	@ 0x48
 800210c:	600e      	str	r6, [r1, #0]
 800210e:	698a      	ldr	r2, [r1, #24]
 8002110:	6d2b      	ldr	r3, [r5, #80]	@ 0x50
 8002112:	f022 02be 	bic.w	r2, r2, #190	@ 0xbe
 8002116:	ea43 4300 	orr.w	r3, r3, r0, lsl #16
 800211a:	0412      	lsls	r2, r2, #16
 800211c:	0c12      	lsrs	r2, r2, #16
 800211e:	4313      	orrs	r3, r2
 8002120:	f895 204c 	ldrb.w	r2, [r5, #76]	@ 0x4c
 8002124:	fab2 f282 	clz	r2, r2
 8002128:	0952      	lsrs	r2, r2, #5
 800212a:	ea43 13c2 	orr.w	r3, r3, r2, lsl #7
 800212e:	f895 2055 	ldrb.w	r2, [r5, #85]	@ 0x55
 8002132:	1e50      	subs	r0, r2, #1
 8002134:	4242      	negs	r2, r0
 8002136:	4142      	adcs	r2, r0
 8002138:	2001      	movs	r0, #1
 800213a:	ea43 03c2 	orr.w	r3, r3, r2, lsl #3
 800213e:	f895 2056 	ldrb.w	r2, [r5, #86]	@ 0x56
 8002142:	1e56      	subs	r6, r2, #1
 8002144:	4272      	negs	r2, r6
 8002146:	4172      	adcs	r2, r6
 8002148:	ea43 0382 	orr.w	r3, r3, r2, lsl #2
 800214c:	f895 2054 	ldrb.w	r2, [r5, #84]	@ 0x54
 8002150:	f102 3cff 	add.w	ip, r2, #4294967295	@ 0xffffffff
 8002154:	f1dc 0200 	rsbs	r2, ip, #0
 8002158:	eb42 020c 	adc.w	r2, r2, ip
 800215c:	ea43 0342 	orr.w	r3, r3, r2, lsl #1
 8002160:	618b      	str	r3, [r1, #24]
 8002162:	698d      	ldr	r5, [r1, #24]
 8002164:	f7ff ff26 	bl	8001fb4 <HAL_Delay>
 8002168:	6823      	ldr	r3, [r4, #0]
 800216a:	619d      	str	r5, [r3, #24]
 800216c:	bd70      	pop	{r4, r5, r6, pc}
 800216e:	bf00      	nop
 8002170:	fd20810f 	.word	0xfd20810f

08002174 <ETH_SetDMAConfig>:
 8002174:	b570      	push	{r4, r5, r6, lr}
 8002176:	694b      	ldr	r3, [r1, #20]
 8002178:	460d      	mov	r5, r1
 800217a:	6a09      	ldr	r1, [r1, #32]
 800217c:	4604      	mov	r4, r0
 800217e:	6802      	ldr	r2, [r0, #0]
 8002180:	430b      	orrs	r3, r1
 8002182:	7b69      	ldrb	r1, [r5, #13]
 8002184:	f502 5280 	add.w	r2, r2, #4096	@ 0x1000
 8002188:	ea43 6341 	orr.w	r3, r3, r1, lsl #25
 800218c:	7ba9      	ldrb	r1, [r5, #14]
 800218e:	6990      	ldr	r0, [r2, #24]
 8002190:	ea43 5341 	orr.w	r3, r3, r1, lsl #21
 8002194:	7f29      	ldrb	r1, [r5, #28]
 8002196:	ea43 13c1 	orr.w	r3, r3, r1, lsl #7
 800219a:	7fa9      	ldrb	r1, [r5, #30]
 800219c:	ea43 1381 	orr.w	r3, r3, r1, lsl #6
 80021a0:	f895 1024 	ldrb.w	r1, [r5, #36]	@ 0x24
 80021a4:	ea43 0381 	orr.w	r3, r3, r1, lsl #2
 80021a8:	491a      	ldr	r1, [pc, #104]	@ (8002214 <ETH_SetDMAConfig+0xa0>)
 80021aa:	4001      	ands	r1, r0
 80021ac:	2001      	movs	r0, #1
 80021ae:	430b      	orrs	r3, r1
 80021b0:	7b29      	ldrb	r1, [r5, #12]
 80021b2:	fab1 f181 	clz	r1, r1
 80021b6:	0949      	lsrs	r1, r1, #5
 80021b8:	ea43 6381 	orr.w	r3, r3, r1, lsl #26
 80021bc:	7f69      	ldrb	r1, [r5, #29]
 80021be:	fab1 f181 	clz	r1, r1
 80021c2:	0949      	lsrs	r1, r1, #5
 80021c4:	ea43 5301 	orr.w	r3, r3, r1, lsl #20
 80021c8:	6193      	str	r3, [r2, #24]
 80021ca:	6996      	ldr	r6, [r2, #24]
 80021cc:	f7ff fef2 	bl	8001fb4 <HAL_Delay>
 80021d0:	6822      	ldr	r2, [r4, #0]
 80021d2:	2001      	movs	r0, #1
 80021d4:	69a9      	ldr	r1, [r5, #24]
 80021d6:	f502 5280 	add.w	r2, r2, #4096	@ 0x1000
 80021da:	68ab      	ldr	r3, [r5, #8]
 80021dc:	6196      	str	r6, [r2, #24]
 80021de:	430b      	orrs	r3, r1
 80021e0:	f895 1025 	ldrb.w	r1, [r5, #37]	@ 0x25
 80021e4:	ea43 13c1 	orr.w	r3, r3, r1, lsl #7
 80021e8:	6929      	ldr	r1, [r5, #16]
 80021ea:	430b      	orrs	r3, r1
 80021ec:	6829      	ldr	r1, [r5, #0]
 80021ee:	430b      	orrs	r3, r1
 80021f0:	6aa9      	ldr	r1, [r5, #40]	@ 0x28
 80021f2:	ea43 0381 	orr.w	r3, r3, r1, lsl #2
 80021f6:	7929      	ldrb	r1, [r5, #4]
 80021f8:	ea43 6341 	orr.w	r3, r3, r1, lsl #25
 80021fc:	f443 0300 	orr.w	r3, r3, #8388608	@ 0x800000
 8002200:	6013      	str	r3, [r2, #0]
 8002202:	6815      	ldr	r5, [r2, #0]
 8002204:	f7ff fed6 	bl	8001fb4 <HAL_Delay>
 8002208:	6823      	ldr	r3, [r4, #0]
 800220a:	f503 5380 	add.w	r3, r3, #4096	@ 0x1000
 800220e:	601d      	str	r5, [r3, #0]
 8002210:	bd70      	pop	{r4, r5, r6, pc}
 8002212:	bf00      	nop
 8002214:	f8de3f23 	.word	0xf8de3f23

08002218 <HAL_ETH_Init>:
 8002218:	b5f0      	push	{r4, r5, r6, r7, lr}
 800221a:	4604      	mov	r4, r0
 800221c:	b0a7      	sub	sp, #156	@ 0x9c
 800221e:	2800      	cmp	r0, #0
 8002220:	f000 80e8 	beq.w	80023f4 <HAL_ETH_Init+0x1dc>
 8002224:	f8d0 3084 	ldr.w	r3, [r0, #132]	@ 0x84
 8002228:	b923      	cbnz	r3, 8002234 <HAL_ETH_Init+0x1c>
 800222a:	2323      	movs	r3, #35	@ 0x23
 800222c:	f8c0 3084 	str.w	r3, [r0, #132]	@ 0x84
 8002230:	f7ff fcda 	bl	8001be8 <HAL_ETH_MspInit>
 8002234:	4b73      	ldr	r3, [pc, #460]	@ (8002404 <HAL_ETH_Init+0x1ec>)
 8002236:	68a1      	ldr	r1, [r4, #8]
 8002238:	6c5a      	ldr	r2, [r3, #68]	@ 0x44
 800223a:	f442 4280 	orr.w	r2, r2, #16384	@ 0x4000
 800223e:	645a      	str	r2, [r3, #68]	@ 0x44
 8002240:	6c5b      	ldr	r3, [r3, #68]	@ 0x44
 8002242:	f403 4380 	and.w	r3, r3, #16384	@ 0x4000
 8002246:	9301      	str	r3, [sp, #4]
 8002248:	9b01      	ldr	r3, [sp, #4]
 800224a:	4b6f      	ldr	r3, [pc, #444]	@ (8002408 <HAL_ETH_Init+0x1f0>)
 800224c:	685a      	ldr	r2, [r3, #4]
 800224e:	f422 0200 	bic.w	r2, r2, #8388608	@ 0x800000
 8002252:	605a      	str	r2, [r3, #4]
 8002254:	685a      	ldr	r2, [r3, #4]
 8002256:	430a      	orrs	r2, r1
 8002258:	605a      	str	r2, [r3, #4]
 800225a:	685b      	ldr	r3, [r3, #4]
 800225c:	6823      	ldr	r3, [r4, #0]
 800225e:	f503 5380 	add.w	r3, r3, #4096	@ 0x1000
 8002262:	681a      	ldr	r2, [r3, #0]
 8002264:	f042 0201 	orr.w	r2, r2, #1
 8002268:	601a      	str	r2, [r3, #0]
 800226a:	f7ff fe9d 	bl	8001fa8 <HAL_GetTick>
 800226e:	4606      	mov	r6, r0
 8002270:	6823      	ldr	r3, [r4, #0]
 8002272:	f503 5380 	add.w	r3, r3, #4096	@ 0x1000
 8002276:	681d      	ldr	r5, [r3, #0]
 8002278:	f015 0501 	ands.w	r5, r5, #1
 800227c:	f040 80ad 	bne.w	80023da <HAL_ETH_Init+0x1c2>
 8002280:	2601      	movs	r6, #1
 8002282:	f44f 4280 	mov.w	r2, #16384	@ 0x4000
 8002286:	f240 1701 	movw	r7, #257	@ 0x101
 800228a:	f44f 6300 	mov.w	r3, #2048	@ 0x800
 800228e:	a90d      	add	r1, sp, #52	@ 0x34
 8002290:	4620      	mov	r0, r4
 8002292:	f88d 6038 	strb.w	r6, [sp, #56]	@ 0x38
 8002296:	f8ad 6052 	strh.w	r6, [sp, #82]	@ 0x52
 800229a:	f8ad 6042 	strh.w	r6, [sp, #66]	@ 0x42
 800229e:	950f      	str	r5, [sp, #60]	@ 0x3c
 80022a0:	f88d 5050 	strb.w	r5, [sp, #80]	@ 0x50
 80022a4:	f88d 5054 	strb.w	r5, [sp, #84]	@ 0x54
 80022a8:	f8ad 7044 	strh.w	r7, [sp, #68]	@ 0x44
 80022ac:	9516      	str	r5, [sp, #88]	@ 0x58
 80022ae:	f88d 505c 	strb.w	r5, [sp, #92]	@ 0x5c
 80022b2:	951f      	str	r5, [sp, #124]	@ 0x7c
 80022b4:	f88d 5080 	strb.w	r5, [sp, #128]	@ 0x80
 80022b8:	9521      	str	r5, [sp, #132]	@ 0x84
 80022ba:	f8ad 5088 	strh.w	r5, [sp, #136]	@ 0x88
 80022be:	f88d 508a 	strb.w	r5, [sp, #138]	@ 0x8a
 80022c2:	e9cd 2312 	strd	r2, r3, [sp, #72]	@ 0x48
 80022c6:	f7ff fedf 	bl	8002088 <ETH_SetMACConfig>
 80022ca:	f44f 3380 	mov.w	r3, #65536	@ 0x10000
 80022ce:	4620      	mov	r0, r4
 80022d0:	a902      	add	r1, sp, #8
 80022d2:	9304      	str	r3, [sp, #16]
 80022d4:	f44f 5300 	mov.w	r3, #8192	@ 0x2000
 80022d8:	f88d 600c 	strb.w	r6, [sp, #12]
 80022dc:	f88d 6016 	strb.w	r6, [sp, #22]
 80022e0:	f8ad 7014 	strh.w	r7, [sp, #20]
 80022e4:	f88d 5026 	strb.w	r5, [sp, #38]	@ 0x26
 80022e8:	950a      	str	r5, [sp, #40]	@ 0x28
 80022ea:	f8ad 702c 	strh.w	r7, [sp, #44]	@ 0x2c
 80022ee:	950c      	str	r5, [sp, #48]	@ 0x30
 80022f0:	9502      	str	r5, [sp, #8]
 80022f2:	e9cd 3506 	strd	r3, r5, [sp, #24]
 80022f6:	f44f 0380 	mov.w	r3, #4194304	@ 0x400000
 80022fa:	9308      	str	r3, [sp, #32]
 80022fc:	f44f 7380 	mov.w	r3, #256	@ 0x100
 8002300:	f8ad 3024 	strh.w	r3, [sp, #36]	@ 0x24
 8002304:	f7ff ff36 	bl	8002174 <ETH_SetDMAConfig>
 8002308:	68e6      	ldr	r6, [r4, #12]
 800230a:	f104 0c14 	add.w	ip, r4, #20
 800230e:	462a      	mov	r2, r5
 8002310:	4628      	mov	r0, r5
 8002312:	4633      	mov	r3, r6
 8002314:	6018      	str	r0, [r3, #0]
 8002316:	4619      	mov	r1, r3
 8002318:	6058      	str	r0, [r3, #4]
 800231a:	2a03      	cmp	r2, #3
 800231c:	6098      	str	r0, [r3, #8]
 800231e:	60d8      	str	r0, [r3, #12]
 8002320:	f84c 3f04 	str.w	r3, [ip, #4]!
 8002324:	681f      	ldr	r7, [r3, #0]
 8002326:	f447 1780 	orr.w	r7, r7, #1048576	@ 0x100000
 800232a:	f841 7b28 	str.w	r7, [r1], #40
 800232e:	d064      	beq.n	80023fa <HAL_ETH_Init+0x1e2>
 8002330:	60d9      	str	r1, [r3, #12]
 8002332:	681f      	ldr	r7, [r3, #0]
 8002334:	3201      	adds	r2, #1
 8002336:	f447 0740 	orr.w	r7, r7, #12582912	@ 0xc00000
 800233a:	2a04      	cmp	r2, #4
 800233c:	601f      	str	r7, [r3, #0]
 800233e:	460b      	mov	r3, r1
 8002340:	d1e8      	bne.n	8002314 <HAL_ETH_Init+0xfc>
 8002342:	6822      	ldr	r2, [r4, #0]
 8002344:	2100      	movs	r1, #0
 8002346:	f104 0c44 	add.w	ip, r4, #68	@ 0x44
 800234a:	f04f 4e00 	mov.w	lr, #2147483648	@ 0x80000000
 800234e:	f502 5780 	add.w	r7, r2, #4096	@ 0x1000
 8002352:	62a1      	str	r1, [r4, #40]	@ 0x28
 8002354:	613e      	str	r6, [r7, #16]
 8002356:	6926      	ldr	r6, [r4, #16]
 8002358:	4633      	mov	r3, r6
 800235a:	6019      	str	r1, [r3, #0]
 800235c:	2d03      	cmp	r5, #3
 800235e:	6059      	str	r1, [r3, #4]
 8002360:	6099      	str	r1, [r3, #8]
 8002362:	60d9      	str	r1, [r3, #12]
 8002364:	f8c3 e000 	str.w	lr, [r3]
 8002368:	e9c3 1108 	strd	r1, r1, [r3, #32]
 800236c:	6960      	ldr	r0, [r4, #20]
 800236e:	f440 4080 	orr.w	r0, r0, #16384	@ 0x4000
 8002372:	6058      	str	r0, [r3, #4]
 8002374:	6858      	ldr	r0, [r3, #4]
 8002376:	f020 4000 	bic.w	r0, r0, #2147483648	@ 0x80000000
 800237a:	6058      	str	r0, [r3, #4]
 800237c:	f103 0028 	add.w	r0, r3, #40	@ 0x28
 8002380:	f84c 3f04 	str.w	r3, [ip, #4]!
 8002384:	d03b      	beq.n	80023fe <HAL_ETH_Init+0x1e6>
 8002386:	60d8      	str	r0, [r3, #12]
 8002388:	3501      	adds	r5, #1
 800238a:	4603      	mov	r3, r0
 800238c:	2d04      	cmp	r5, #4
 800238e:	d1e4      	bne.n	800235a <HAL_ETH_Init+0x142>
 8002390:	6861      	ldr	r1, [r4, #4]
 8002392:	2000      	movs	r0, #0
 8002394:	4b1d      	ldr	r3, [pc, #116]	@ (800240c <HAL_ETH_Init+0x1f4>)
 8002396:	65a0      	str	r0, [r4, #88]	@ 0x58
 8002398:	e9c4 0017 	strd	r0, r0, [r4, #92]	@ 0x5c
 800239c:	e9c4 001a 	strd	r0, r0, [r4, #104]	@ 0x68
 80023a0:	60fe      	str	r6, [r7, #12]
 80023a2:	888d      	ldrh	r5, [r1, #4]
 80023a4:	641d      	str	r5, [r3, #64]	@ 0x40
 80023a6:	6809      	ldr	r1, [r1, #0]
 80023a8:	6459      	str	r1, [r3, #68]	@ 0x44
 80023aa:	6bd3      	ldr	r3, [r2, #60]	@ 0x3c
 80023ac:	f443 7302 	orr.w	r3, r3, #520	@ 0x208
 80023b0:	63d3      	str	r3, [r2, #60]	@ 0x3c
 80023b2:	f8d2 310c 	ldr.w	r3, [r2, #268]	@ 0x10c
 80023b6:	f443 3300 	orr.w	r3, r3, #131072	@ 0x20000
 80023ba:	f043 0360 	orr.w	r3, r3, #96	@ 0x60
 80023be:	f8c2 310c 	str.w	r3, [r2, #268]	@ 0x10c
 80023c2:	f8d2 3110 	ldr.w	r3, [r2, #272]	@ 0x110
 80023c6:	f443 1303 	orr.w	r3, r3, #2146304	@ 0x20c000
 80023ca:	f8c2 3110 	str.w	r3, [r2, #272]	@ 0x110
 80023ce:	2310      	movs	r3, #16
 80023d0:	f8c4 0088 	str.w	r0, [r4, #136]	@ 0x88
 80023d4:	f8c4 3084 	str.w	r3, [r4, #132]	@ 0x84
 80023d8:	e00d      	b.n	80023f6 <HAL_ETH_Init+0x1de>
 80023da:	f7ff fde5 	bl	8001fa8 <HAL_GetTick>
 80023de:	1b80      	subs	r0, r0, r6
 80023e0:	f5b0 7ffa 	cmp.w	r0, #500	@ 0x1f4
 80023e4:	f67f af44 	bls.w	8002270 <HAL_ETH_Init+0x58>
 80023e8:	2304      	movs	r3, #4
 80023ea:	f8c4 3088 	str.w	r3, [r4, #136]	@ 0x88
 80023ee:	23e0      	movs	r3, #224	@ 0xe0
 80023f0:	f8c4 3084 	str.w	r3, [r4, #132]	@ 0x84
 80023f4:	2001      	movs	r0, #1
 80023f6:	b027      	add	sp, #156	@ 0x9c
 80023f8:	bdf0      	pop	{r4, r5, r6, r7, pc}
 80023fa:	60de      	str	r6, [r3, #12]
 80023fc:	e799      	b.n	8002332 <HAL_ETH_Init+0x11a>
 80023fe:	60de      	str	r6, [r3, #12]
 8002400:	e7c2      	b.n	8002388 <HAL_ETH_Init+0x170>
 8002402:	bf00      	nop
 8002404:	40023800 	.word	0x40023800
 8002408:	40013800 	.word	0x40013800
 800240c:	40028000 	.word	0x40028000

08002410 <HAL_GPIO_Init>:
 8002410:	e92d 4ff7 	stmdb	sp!, {r0, r1, r2, r4, r5, r6, r7, r8, r9, sl, fp, lr}
 8002414:	2300      	movs	r3, #0
 8002416:	f8df 91bc 	ldr.w	r9, [pc, #444]	@ 80025d4 <HAL_GPIO_Init+0x1c4>
 800241a:	4a6c      	ldr	r2, [pc, #432]	@ (80025cc <HAL_GPIO_Init+0x1bc>)
 800241c:	2401      	movs	r4, #1
 800241e:	680d      	ldr	r5, [r1, #0]
 8002420:	409c      	lsls	r4, r3
 8002422:	ea04 0605 	and.w	r6, r4, r5
 8002426:	43ac      	bics	r4, r5
 8002428:	f040 80b7 	bne.w	800259a <HAL_GPIO_Init+0x18a>
 800242c:	684d      	ldr	r5, [r1, #4]
 800242e:	2703      	movs	r7, #3
 8002430:	ea4f 0e43 	mov.w	lr, r3, lsl #1
 8002434:	f005 0403 	and.w	r4, r5, #3
 8002438:	fa07 fc0e 	lsl.w	ip, r7, lr
 800243c:	1e67      	subs	r7, r4, #1
 800243e:	ea6f 0c0c 	mvn.w	ip, ip
 8002442:	2f01      	cmp	r7, #1
 8002444:	d834      	bhi.n	80024b0 <HAL_GPIO_Init+0xa0>
 8002446:	6887      	ldr	r7, [r0, #8]
 8002448:	ea07 080c 	and.w	r8, r7, ip
 800244c:	68cf      	ldr	r7, [r1, #12]
 800244e:	fa07 f70e 	lsl.w	r7, r7, lr
 8002452:	ea47 0708 	orr.w	r7, r7, r8
 8002456:	6087      	str	r7, [r0, #8]
 8002458:	6847      	ldr	r7, [r0, #4]
 800245a:	ea27 0806 	bic.w	r8, r7, r6
 800245e:	f3c5 1700 	ubfx	r7, r5, #4, #1
 8002462:	409f      	lsls	r7, r3
 8002464:	ea47 0708 	orr.w	r7, r7, r8
 8002468:	6047      	str	r7, [r0, #4]
 800246a:	68c7      	ldr	r7, [r0, #12]
 800246c:	2c02      	cmp	r4, #2
 800246e:	ea07 080c 	and.w	r8, r7, ip
 8002472:	688f      	ldr	r7, [r1, #8]
 8002474:	fa07 f70e 	lsl.w	r7, r7, lr
 8002478:	ea47 0708 	orr.w	r7, r7, r8
 800247c:	60c7      	str	r7, [r0, #12]
 800247e:	d119      	bne.n	80024b4 <HAL_GPIO_Init+0xa4>
 8002480:	ea4f 08d3 	mov.w	r8, r3, lsr #3
 8002484:	f003 0a07 	and.w	sl, r3, #7
 8002488:	f04f 0b0f 	mov.w	fp, #15
 800248c:	eb00 0888 	add.w	r8, r0, r8, lsl #2
 8002490:	ea4f 0a8a 	mov.w	sl, sl, lsl #2
 8002494:	f8d8 7020 	ldr.w	r7, [r8, #32]
 8002498:	fa0b fb0a 	lsl.w	fp, fp, sl
 800249c:	ea27 0b0b 	bic.w	fp, r7, fp
 80024a0:	690f      	ldr	r7, [r1, #16]
 80024a2:	fa07 f70a 	lsl.w	r7, r7, sl
 80024a6:	ea47 070b 	orr.w	r7, r7, fp
 80024aa:	f8c8 7020 	str.w	r7, [r8, #32]
 80024ae:	e001      	b.n	80024b4 <HAL_GPIO_Init+0xa4>
 80024b0:	2c03      	cmp	r4, #3
 80024b2:	d1da      	bne.n	800246a <HAL_GPIO_Init+0x5a>
 80024b4:	6807      	ldr	r7, [r0, #0]
 80024b6:	fa04 f40e 	lsl.w	r4, r4, lr
 80024ba:	f415 3f40 	tst.w	r5, #196608	@ 0x30000
 80024be:	ea07 070c 	and.w	r7, r7, ip
 80024c2:	ea44 0407 	orr.w	r4, r4, r7
 80024c6:	6004      	str	r4, [r0, #0]
 80024c8:	d067      	beq.n	800259a <HAL_GPIO_Init+0x18a>
 80024ca:	f8d9 4044 	ldr.w	r4, [r9, #68]	@ 0x44
 80024ce:	f023 0703 	bic.w	r7, r3, #3
 80024d2:	f003 0c03 	and.w	ip, r3, #3
 80024d6:	f04f 0e0f 	mov.w	lr, #15
 80024da:	f444 4480 	orr.w	r4, r4, #16384	@ 0x4000
 80024de:	f107 4780 	add.w	r7, r7, #1073741824	@ 0x40000000
 80024e2:	ea4f 0c8c 	mov.w	ip, ip, lsl #2
 80024e6:	f8c9 4044 	str.w	r4, [r9, #68]	@ 0x44
 80024ea:	f507 379c 	add.w	r7, r7, #79872	@ 0x13800
 80024ee:	f8d9 4044 	ldr.w	r4, [r9, #68]	@ 0x44
 80024f2:	fa0e fe0c 	lsl.w	lr, lr, ip
 80024f6:	f404 4480 	and.w	r4, r4, #16384	@ 0x4000
 80024fa:	9401      	str	r4, [sp, #4]
 80024fc:	9c01      	ldr	r4, [sp, #4]
 80024fe:	68bc      	ldr	r4, [r7, #8]
 8002500:	ea24 0e0e 	bic.w	lr, r4, lr
 8002504:	4c32      	ldr	r4, [pc, #200]	@ (80025d0 <HAL_GPIO_Init+0x1c0>)
 8002506:	42a0      	cmp	r0, r4
 8002508:	d04e      	beq.n	80025a8 <HAL_GPIO_Init+0x198>
 800250a:	f504 6480 	add.w	r4, r4, #1024	@ 0x400
 800250e:	42a0      	cmp	r0, r4
 8002510:	d04c      	beq.n	80025ac <HAL_GPIO_Init+0x19c>
 8002512:	f504 6480 	add.w	r4, r4, #1024	@ 0x400
 8002516:	42a0      	cmp	r0, r4
 8002518:	d04a      	beq.n	80025b0 <HAL_GPIO_Init+0x1a0>
 800251a:	f504 6480 	add.w	r4, r4, #1024	@ 0x400
 800251e:	42a0      	cmp	r0, r4
 8002520:	d048      	beq.n	80025b4 <HAL_GPIO_Init+0x1a4>
 8002522:	f504 6480 	add.w	r4, r4, #1024	@ 0x400
 8002526:	42a0      	cmp	r0, r4
 8002528:	d046      	beq.n	80025b8 <HAL_GPIO_Init+0x1a8>
 800252a:	f504 6480 	add.w	r4, r4, #1024	@ 0x400
 800252e:	42a0      	cmp	r0, r4
 8002530:	d044      	beq.n	80025bc <HAL_GPIO_Init+0x1ac>
 8002532:	f504 6480 	add.w	r4, r4, #1024	@ 0x400
 8002536:	42a0      	cmp	r0, r4
 8002538:	d042      	beq.n	80025c0 <HAL_GPIO_Init+0x1b0>
 800253a:	f504 6480 	add.w	r4, r4, #1024	@ 0x400
 800253e:	42a0      	cmp	r0, r4
 8002540:	d040      	beq.n	80025c4 <HAL_GPIO_Init+0x1b4>
 8002542:	f504 6480 	add.w	r4, r4, #1024	@ 0x400
 8002546:	42a0      	cmp	r0, r4
 8002548:	d03e      	beq.n	80025c8 <HAL_GPIO_Init+0x1b8>
 800254a:	f504 6480 	add.w	r4, r4, #1024	@ 0x400
 800254e:	42a0      	cmp	r0, r4
 8002550:	bf14      	ite	ne
 8002552:	240a      	movne	r4, #10
 8002554:	2409      	moveq	r4, #9
 8002556:	fa04 f40c 	lsl.w	r4, r4, ip
 800255a:	f415 1f80 	tst.w	r5, #1048576	@ 0x100000
 800255e:	ea44 040e 	orr.w	r4, r4, lr
 8002562:	60bc      	str	r4, [r7, #8]
 8002564:	ea6f 0706 	mvn.w	r7, r6
 8002568:	6894      	ldr	r4, [r2, #8]
 800256a:	bf0c      	ite	eq
 800256c:	403c      	andeq	r4, r7
 800256e:	4334      	orrne	r4, r6
 8002570:	f415 1f00 	tst.w	r5, #2097152	@ 0x200000
 8002574:	6094      	str	r4, [r2, #8]
 8002576:	68d4      	ldr	r4, [r2, #12]
 8002578:	bf0c      	ite	eq
 800257a:	403c      	andeq	r4, r7
 800257c:	4334      	orrne	r4, r6
 800257e:	f415 3f00 	tst.w	r5, #131072	@ 0x20000
 8002582:	60d4      	str	r4, [r2, #12]
 8002584:	6854      	ldr	r4, [r2, #4]
 8002586:	bf0c      	ite	eq
 8002588:	403c      	andeq	r4, r7
 800258a:	4334      	orrne	r4, r6
 800258c:	03ed      	lsls	r5, r5, #15
 800258e:	6054      	str	r4, [r2, #4]
 8002590:	6814      	ldr	r4, [r2, #0]
 8002592:	bf54      	ite	pl
 8002594:	403c      	andpl	r4, r7
 8002596:	4334      	orrmi	r4, r6
 8002598:	6014      	str	r4, [r2, #0]
 800259a:	3301      	adds	r3, #1
 800259c:	2b10      	cmp	r3, #16
 800259e:	f47f af3d 	bne.w	800241c <HAL_GPIO_Init+0xc>
 80025a2:	b003      	add	sp, #12
 80025a4:	e8bd 8ff0 	ldmia.w	sp!, {r4, r5, r6, r7, r8, r9, sl, fp, pc}
 80025a8:	2400      	movs	r4, #0
 80025aa:	e7d4      	b.n	8002556 <HAL_GPIO_Init+0x146>
 80025ac:	2401      	movs	r4, #1
 80025ae:	e7d2      	b.n	8002556 <HAL_GPIO_Init+0x146>
 80025b0:	2402      	movs	r4, #2
 80025b2:	e7d0      	b.n	8002556 <HAL_GPIO_Init+0x146>
 80025b4:	2403      	movs	r4, #3
 80025b6:	e7ce      	b.n	8002556 <HAL_GPIO_Init+0x146>
 80025b8:	2404      	movs	r4, #4
 80025ba:	e7cc      	b.n	8002556 <HAL_GPIO_Init+0x146>
 80025bc:	2405      	movs	r4, #5
 80025be:	e7ca      	b.n	8002556 <HAL_GPIO_Init+0x146>
 80025c0:	2406      	movs	r4, #6
 80025c2:	e7c8      	b.n	8002556 <HAL_GPIO_Init+0x146>
 80025c4:	2407      	movs	r4, #7
 80025c6:	e7c6      	b.n	8002556 <HAL_GPIO_Init+0x146>
 80025c8:	2408      	movs	r4, #8
 80025ca:	e7c4      	b.n	8002556 <HAL_GPIO_Init+0x146>
 80025cc:	40013c00 	.word	0x40013c00
 80025d0:	40020000 	.word	0x40020000
 80025d4:	40023800 	.word	0x40023800

080025d8 <HAL_GPIO_WritePin>:
 80025d8:	b10a      	cbz	r2, 80025de <HAL_GPIO_WritePin+0x6>
 80025da:	6181      	str	r1, [r0, #24]
 80025dc:	4770      	bx	lr
 80025de:	0409      	lsls	r1, r1, #16
 80025e0:	e7fb      	b.n	80025da <HAL_GPIO_WritePin+0x2>

080025e2 <HAL_PCD_Init>:
 80025e2:	b5f7      	push	{r0, r1, r2, r4, r5, r6, r7, lr}
 80025e4:	4604      	mov	r4, r0
 80025e6:	b318      	cbz	r0, 8002630 <HAL_PCD_Init+0x4e>
 80025e8:	f890 3495 	ldrb.w	r3, [r0, #1173]	@ 0x495
 80025ec:	6805      	ldr	r5, [r0, #0]
 80025ee:	f003 02ff 	and.w	r2, r3, #255	@ 0xff
 80025f2:	b91b      	cbnz	r3, 80025fc <HAL_PCD_Init+0x1a>
 80025f4:	f880 2494 	strb.w	r2, [r0, #1172]	@ 0x494
 80025f8:	f7ff fbc0 	bl	8001d7c <HAL_PCD_MspInit>
 80025fc:	2303      	movs	r3, #3
 80025fe:	f1b5 4fa0 	cmp.w	r5, #1342177280	@ 0x50000000
 8002602:	6820      	ldr	r0, [r4, #0]
 8002604:	f104 0504 	add.w	r5, r4, #4
 8002608:	f884 3495 	strb.w	r3, [r4, #1173]	@ 0x495
 800260c:	bf04      	itt	eq
 800260e:	2300      	moveq	r3, #0
 8002610:	71a3      	strbeq	r3, [r4, #6]
 8002612:	f001 f895 	bl	8003740 <USB_DisableGlobalInt>
 8002616:	7c23      	ldrb	r3, [r4, #16]
 8002618:	f88d 3000 	strb.w	r3, [sp]
 800261c:	6820      	ldr	r0, [r4, #0]
 800261e:	e895 000e 	ldmia.w	r5, {r1, r2, r3}
 8002622:	f001 f84f 	bl	80036c4 <USB_CoreInit>
 8002626:	4601      	mov	r1, r0
 8002628:	b130      	cbz	r0, 8002638 <HAL_PCD_Init+0x56>
 800262a:	2302      	movs	r3, #2
 800262c:	f884 3495 	strb.w	r3, [r4, #1173]	@ 0x495
 8002630:	2501      	movs	r5, #1
 8002632:	4628      	mov	r0, r5
 8002634:	b003      	add	sp, #12
 8002636:	bdf0      	pop	{r4, r5, r6, r7, pc}
 8002638:	6820      	ldr	r0, [r4, #0]
 800263a:	f001 f887 	bl	800374c <USB_SetCurrentMode>
 800263e:	2800      	cmp	r0, #0
 8002640:	d1f3      	bne.n	800262a <HAL_PCD_Init+0x48>
 8002642:	7926      	ldrb	r6, [r4, #4]
 8002644:	f104 0314 	add.w	r3, r4, #20
 8002648:	2701      	movs	r7, #1
 800264a:	4602      	mov	r2, r0
 800264c:	b2c1      	uxtb	r1, r0
 800264e:	3324      	adds	r3, #36	@ 0x24
 8002650:	428e      	cmp	r6, r1
 8002652:	d820      	bhi.n	8002696 <HAL_PCD_Init+0xb4>
 8002654:	2100      	movs	r1, #0
 8002656:	f504 7315 	add.w	r3, r4, #596	@ 0x254
 800265a:	460a      	mov	r2, r1
 800265c:	b2c8      	uxtb	r0, r1
 800265e:	3324      	adds	r3, #36	@ 0x24
 8002660:	4286      	cmp	r6, r0
 8002662:	d826      	bhi.n	80026b2 <HAL_PCD_Init+0xd0>
 8002664:	7c23      	ldrb	r3, [r4, #16]
 8002666:	f88d 3000 	strb.w	r3, [sp]
 800266a:	6820      	ldr	r0, [r4, #0]
 800266c:	e895 000e 	ldmia.w	r5, {r1, r2, r3}
 8002670:	f001 f8e6 	bl	8003840 <USB_DevInit>
 8002674:	4605      	mov	r5, r0
 8002676:	2800      	cmp	r0, #0
 8002678:	d1d7      	bne.n	800262a <HAL_PCD_Init+0x48>
 800267a:	2301      	movs	r3, #1
 800267c:	7460      	strb	r0, [r4, #17]
 800267e:	f884 3495 	strb.w	r3, [r4, #1173]	@ 0x495
 8002682:	7b23      	ldrb	r3, [r4, #12]
 8002684:	2b01      	cmp	r3, #1
 8002686:	d102      	bne.n	800268e <HAL_PCD_Init+0xac>
 8002688:	4620      	mov	r0, r4
 800268a:	f000 f81e 	bl	80026ca <HAL_PCDEx_ActivateLPM>
 800268e:	6820      	ldr	r0, [r4, #0]
 8002690:	f001 f98e 	bl	80039b0 <USB_DevDisconnect>
 8002694:	e7cd      	b.n	8002632 <HAL_PCD_Init+0x50>
 8002696:	f823 0c0a 	strh.w	r0, [r3, #-10]
 800269a:	3001      	adds	r0, #1
 800269c:	f803 7c23 	strb.w	r7, [r3, #-35]
 80026a0:	f803 1c24 	strb.w	r1, [r3, #-36]
 80026a4:	f803 2c20 	strb.w	r2, [r3, #-32]
 80026a8:	f843 2c14 	str.w	r2, [r3, #-20]
 80026ac:	e943 2207 	strd	r2, r2, [r3, #-28]
 80026b0:	e7cc      	b.n	800264c <HAL_PCD_Init+0x6a>
 80026b2:	3101      	adds	r1, #1
 80026b4:	f803 2c23 	strb.w	r2, [r3, #-35]
 80026b8:	f803 0c24 	strb.w	r0, [r3, #-36]
 80026bc:	f803 2c20 	strb.w	r2, [r3, #-32]
 80026c0:	f843 2c14 	str.w	r2, [r3, #-20]
 80026c4:	e943 2207 	strd	r2, r2, [r3, #-28]
 80026c8:	e7c8      	b.n	800265c <HAL_PCD_Init+0x7a>

080026ca <HAL_PCDEx_ActivateLPM>:
 80026ca:	2101      	movs	r1, #1
 80026cc:	6802      	ldr	r2, [r0, #0]
 80026ce:	4603      	mov	r3, r0
 80026d0:	f8c0 14d8 	str.w	r1, [r0, #1240]	@ 0x4d8
 80026d4:	2000      	movs	r0, #0
 80026d6:	f883 04cc 	strb.w	r0, [r3, #1228]	@ 0x4cc
 80026da:	6993      	ldr	r3, [r2, #24]
 80026dc:	f043 6300 	orr.w	r3, r3, #134217728	@ 0x8000000
 80026e0:	6193      	str	r3, [r2, #24]
 80026e2:	6d53      	ldr	r3, [r2, #84]	@ 0x54
 80026e4:	f043 5380 	orr.w	r3, r3, #268435456	@ 0x10000000
 80026e8:	f043 0303 	orr.w	r3, r3, #3
 80026ec:	6553      	str	r3, [r2, #84]	@ 0x54
 80026ee:	4770      	bx	lr

080026f0 <HAL_PWR_EnableBkUpAccess>:
 80026f0:	4a02      	ldr	r2, [pc, #8]	@ (80026fc <HAL_PWR_EnableBkUpAccess+0xc>)
 80026f2:	6813      	ldr	r3, [r2, #0]
 80026f4:	f443 7380 	orr.w	r3, r3, #256	@ 0x100
 80026f8:	6013      	str	r3, [r2, #0]
 80026fa:	4770      	bx	lr
 80026fc:	40007000 	.word	0x40007000

08002700 <HAL_RCC_OscConfig>:
 8002700:	e92d 41f3 	stmdb	sp!, {r0, r1, r4, r5, r6, r7, r8, lr}
 8002704:	4604      	mov	r4, r0
 8002706:	b340      	cbz	r0, 800275a <HAL_RCC_OscConfig+0x5a>
 8002708:	6803      	ldr	r3, [r0, #0]
 800270a:	07de      	lsls	r6, r3, #31
 800270c:	d410      	bmi.n	8002730 <HAL_RCC_OscConfig+0x30>
 800270e:	6823      	ldr	r3, [r4, #0]
 8002710:	079d      	lsls	r5, r3, #30
 8002712:	d461      	bmi.n	80027d8 <HAL_RCC_OscConfig+0xd8>
 8002714:	6823      	ldr	r3, [r4, #0]
 8002716:	0719      	lsls	r1, r3, #28
 8002718:	f100 80a6 	bmi.w	8002868 <HAL_RCC_OscConfig+0x168>
 800271c:	6823      	ldr	r3, [r4, #0]
 800271e:	075a      	lsls	r2, r3, #29
 8002720:	f100 80c7 	bmi.w	80028b2 <HAL_RCC_OscConfig+0x1b2>
 8002724:	69a2      	ldr	r2, [r4, #24]
 8002726:	2a00      	cmp	r2, #0
 8002728:	f040 8130 	bne.w	800298c <HAL_RCC_OscConfig+0x28c>
 800272c:	2000      	movs	r0, #0
 800272e:	e02c      	b.n	800278a <HAL_RCC_OscConfig+0x8a>
 8002730:	4b94      	ldr	r3, [pc, #592]	@ (8002984 <HAL_RCC_OscConfig+0x284>)
 8002732:	689a      	ldr	r2, [r3, #8]
 8002734:	f002 020c 	and.w	r2, r2, #12
 8002738:	2a04      	cmp	r2, #4
 800273a:	d007      	beq.n	800274c <HAL_RCC_OscConfig+0x4c>
 800273c:	689a      	ldr	r2, [r3, #8]
 800273e:	f002 020c 	and.w	r2, r2, #12
 8002742:	2a08      	cmp	r2, #8
 8002744:	d10b      	bne.n	800275e <HAL_RCC_OscConfig+0x5e>
 8002746:	685b      	ldr	r3, [r3, #4]
 8002748:	0259      	lsls	r1, r3, #9
 800274a:	d508      	bpl.n	800275e <HAL_RCC_OscConfig+0x5e>
 800274c:	4b8d      	ldr	r3, [pc, #564]	@ (8002984 <HAL_RCC_OscConfig+0x284>)
 800274e:	681b      	ldr	r3, [r3, #0]
 8002750:	039a      	lsls	r2, r3, #14
 8002752:	d5dc      	bpl.n	800270e <HAL_RCC_OscConfig+0xe>
 8002754:	6863      	ldr	r3, [r4, #4]
 8002756:	2b00      	cmp	r3, #0
 8002758:	d1d9      	bne.n	800270e <HAL_RCC_OscConfig+0xe>
 800275a:	2001      	movs	r0, #1
 800275c:	e015      	b.n	800278a <HAL_RCC_OscConfig+0x8a>
 800275e:	6863      	ldr	r3, [r4, #4]
 8002760:	4d88      	ldr	r5, [pc, #544]	@ (8002984 <HAL_RCC_OscConfig+0x284>)
 8002762:	f5b3 3f80 	cmp.w	r3, #65536	@ 0x10000
 8002766:	d113      	bne.n	8002790 <HAL_RCC_OscConfig+0x90>
 8002768:	682b      	ldr	r3, [r5, #0]
 800276a:	f443 3380 	orr.w	r3, r3, #65536	@ 0x10000
 800276e:	602b      	str	r3, [r5, #0]
 8002770:	f7ff fc1a 	bl	8001fa8 <HAL_GetTick>
 8002774:	4e83      	ldr	r6, [pc, #524]	@ (8002984 <HAL_RCC_OscConfig+0x284>)
 8002776:	4605      	mov	r5, r0
 8002778:	6833      	ldr	r3, [r6, #0]
 800277a:	039b      	lsls	r3, r3, #14
 800277c:	d4c7      	bmi.n	800270e <HAL_RCC_OscConfig+0xe>
 800277e:	f7ff fc13 	bl	8001fa8 <HAL_GetTick>
 8002782:	1b40      	subs	r0, r0, r5
 8002784:	2864      	cmp	r0, #100	@ 0x64
 8002786:	d9f7      	bls.n	8002778 <HAL_RCC_OscConfig+0x78>
 8002788:	2003      	movs	r0, #3
 800278a:	b002      	add	sp, #8
 800278c:	e8bd 81f0 	ldmia.w	sp!, {r4, r5, r6, r7, r8, pc}
 8002790:	b99b      	cbnz	r3, 80027ba <HAL_RCC_OscConfig+0xba>
 8002792:	682b      	ldr	r3, [r5, #0]
 8002794:	f423 3380 	bic.w	r3, r3, #65536	@ 0x10000
 8002798:	602b      	str	r3, [r5, #0]
 800279a:	682b      	ldr	r3, [r5, #0]
 800279c:	f423 2380 	bic.w	r3, r3, #262144	@ 0x40000
 80027a0:	602b      	str	r3, [r5, #0]
 80027a2:	f7ff fc01 	bl	8001fa8 <HAL_GetTick>
 80027a6:	4606      	mov	r6, r0
 80027a8:	682b      	ldr	r3, [r5, #0]
 80027aa:	039f      	lsls	r7, r3, #14
 80027ac:	d5af      	bpl.n	800270e <HAL_RCC_OscConfig+0xe>
 80027ae:	f7ff fbfb 	bl	8001fa8 <HAL_GetTick>
 80027b2:	1b80      	subs	r0, r0, r6
 80027b4:	2864      	cmp	r0, #100	@ 0x64
 80027b6:	d9f7      	bls.n	80027a8 <HAL_RCC_OscConfig+0xa8>
 80027b8:	e7e6      	b.n	8002788 <HAL_RCC_OscConfig+0x88>
 80027ba:	f5b3 2fa0 	cmp.w	r3, #327680	@ 0x50000
 80027be:	682b      	ldr	r3, [r5, #0]
 80027c0:	d103      	bne.n	80027ca <HAL_RCC_OscConfig+0xca>
 80027c2:	f443 2380 	orr.w	r3, r3, #262144	@ 0x40000
 80027c6:	602b      	str	r3, [r5, #0]
 80027c8:	e7ce      	b.n	8002768 <HAL_RCC_OscConfig+0x68>
 80027ca:	f423 3380 	bic.w	r3, r3, #65536	@ 0x10000
 80027ce:	602b      	str	r3, [r5, #0]
 80027d0:	682b      	ldr	r3, [r5, #0]
 80027d2:	f423 2380 	bic.w	r3, r3, #262144	@ 0x40000
 80027d6:	e7ca      	b.n	800276e <HAL_RCC_OscConfig+0x6e>
 80027d8:	4b6a      	ldr	r3, [pc, #424]	@ (8002984 <HAL_RCC_OscConfig+0x284>)
 80027da:	689a      	ldr	r2, [r3, #8]
 80027dc:	f012 0f0c 	tst.w	r2, #12
 80027e0:	d007      	beq.n	80027f2 <HAL_RCC_OscConfig+0xf2>
 80027e2:	689a      	ldr	r2, [r3, #8]
 80027e4:	f002 020c 	and.w	r2, r2, #12
 80027e8:	2a08      	cmp	r2, #8
 80027ea:	d111      	bne.n	8002810 <HAL_RCC_OscConfig+0x110>
 80027ec:	685b      	ldr	r3, [r3, #4]
 80027ee:	025d      	lsls	r5, r3, #9
 80027f0:	d40e      	bmi.n	8002810 <HAL_RCC_OscConfig+0x110>
 80027f2:	4a64      	ldr	r2, [pc, #400]	@ (8002984 <HAL_RCC_OscConfig+0x284>)
 80027f4:	6813      	ldr	r3, [r2, #0]
 80027f6:	0799      	lsls	r1, r3, #30
 80027f8:	d502      	bpl.n	8002800 <HAL_RCC_OscConfig+0x100>
 80027fa:	68e3      	ldr	r3, [r4, #12]
 80027fc:	2b01      	cmp	r3, #1
 80027fe:	d1ac      	bne.n	800275a <HAL_RCC_OscConfig+0x5a>
 8002800:	6813      	ldr	r3, [r2, #0]
 8002802:	6921      	ldr	r1, [r4, #16]
 8002804:	f023 03f8 	bic.w	r3, r3, #248	@ 0xf8
 8002808:	ea43 03c1 	orr.w	r3, r3, r1, lsl #3
 800280c:	6013      	str	r3, [r2, #0]
 800280e:	e781      	b.n	8002714 <HAL_RCC_OscConfig+0x14>
 8002810:	68e3      	ldr	r3, [r4, #12]
 8002812:	4d5c      	ldr	r5, [pc, #368]	@ (8002984 <HAL_RCC_OscConfig+0x284>)
 8002814:	b1bb      	cbz	r3, 8002846 <HAL_RCC_OscConfig+0x146>
 8002816:	682b      	ldr	r3, [r5, #0]
 8002818:	f043 0301 	orr.w	r3, r3, #1
 800281c:	602b      	str	r3, [r5, #0]
 800281e:	f7ff fbc3 	bl	8001fa8 <HAL_GetTick>
 8002822:	4606      	mov	r6, r0
 8002824:	682b      	ldr	r3, [r5, #0]
 8002826:	079b      	lsls	r3, r3, #30
 8002828:	d507      	bpl.n	800283a <HAL_RCC_OscConfig+0x13a>
 800282a:	682b      	ldr	r3, [r5, #0]
 800282c:	6922      	ldr	r2, [r4, #16]
 800282e:	f023 03f8 	bic.w	r3, r3, #248	@ 0xf8
 8002832:	ea43 03c2 	orr.w	r3, r3, r2, lsl #3
 8002836:	602b      	str	r3, [r5, #0]
 8002838:	e76c      	b.n	8002714 <HAL_RCC_OscConfig+0x14>
 800283a:	f7ff fbb5 	bl	8001fa8 <HAL_GetTick>
 800283e:	1b80      	subs	r0, r0, r6
 8002840:	2802      	cmp	r0, #2
 8002842:	d9ef      	bls.n	8002824 <HAL_RCC_OscConfig+0x124>
 8002844:	e7a0      	b.n	8002788 <HAL_RCC_OscConfig+0x88>
 8002846:	682b      	ldr	r3, [r5, #0]
 8002848:	f023 0301 	bic.w	r3, r3, #1
 800284c:	602b      	str	r3, [r5, #0]
 800284e:	f7ff fbab 	bl	8001fa8 <HAL_GetTick>
 8002852:	4606      	mov	r6, r0
 8002854:	682b      	ldr	r3, [r5, #0]
 8002856:	079f      	lsls	r7, r3, #30
 8002858:	f57f af5c 	bpl.w	8002714 <HAL_RCC_OscConfig+0x14>
 800285c:	f7ff fba4 	bl	8001fa8 <HAL_GetTick>
 8002860:	1b80      	subs	r0, r0, r6
 8002862:	2802      	cmp	r0, #2
 8002864:	d9f6      	bls.n	8002854 <HAL_RCC_OscConfig+0x154>
 8002866:	e78f      	b.n	8002788 <HAL_RCC_OscConfig+0x88>
 8002868:	6963      	ldr	r3, [r4, #20]
 800286a:	4d46      	ldr	r5, [pc, #280]	@ (8002984 <HAL_RCC_OscConfig+0x284>)
 800286c:	b183      	cbz	r3, 8002890 <HAL_RCC_OscConfig+0x190>
 800286e:	6f6b      	ldr	r3, [r5, #116]	@ 0x74
 8002870:	f043 0301 	orr.w	r3, r3, #1
 8002874:	676b      	str	r3, [r5, #116]	@ 0x74
 8002876:	f7ff fb97 	bl	8001fa8 <HAL_GetTick>
 800287a:	4606      	mov	r6, r0
 800287c:	6f6b      	ldr	r3, [r5, #116]	@ 0x74
 800287e:	079b      	lsls	r3, r3, #30
 8002880:	f53f af4c 	bmi.w	800271c <HAL_RCC_OscConfig+0x1c>
 8002884:	f7ff fb90 	bl	8001fa8 <HAL_GetTick>
 8002888:	1b80      	subs	r0, r0, r6
 800288a:	2802      	cmp	r0, #2
 800288c:	d9f6      	bls.n	800287c <HAL_RCC_OscConfig+0x17c>
 800288e:	e77b      	b.n	8002788 <HAL_RCC_OscConfig+0x88>
 8002890:	6f6b      	ldr	r3, [r5, #116]	@ 0x74
 8002892:	f023 0301 	bic.w	r3, r3, #1
 8002896:	676b      	str	r3, [r5, #116]	@ 0x74
 8002898:	f7ff fb86 	bl	8001fa8 <HAL_GetTick>
 800289c:	4606      	mov	r6, r0
 800289e:	6f6b      	ldr	r3, [r5, #116]	@ 0x74
 80028a0:	079f      	lsls	r7, r3, #30
 80028a2:	f57f af3b 	bpl.w	800271c <HAL_RCC_OscConfig+0x1c>
 80028a6:	f7ff fb7f 	bl	8001fa8 <HAL_GetTick>
 80028aa:	1b80      	subs	r0, r0, r6
 80028ac:	2802      	cmp	r0, #2
 80028ae:	d9f6      	bls.n	800289e <HAL_RCC_OscConfig+0x19e>
 80028b0:	e76a      	b.n	8002788 <HAL_RCC_OscConfig+0x88>
 80028b2:	4b34      	ldr	r3, [pc, #208]	@ (8002984 <HAL_RCC_OscConfig+0x284>)
 80028b4:	6c1a      	ldr	r2, [r3, #64]	@ 0x40
 80028b6:	00d5      	lsls	r5, r2, #3
 80028b8:	d427      	bmi.n	800290a <HAL_RCC_OscConfig+0x20a>
 80028ba:	6c1a      	ldr	r2, [r3, #64]	@ 0x40
 80028bc:	2701      	movs	r7, #1
 80028be:	f042 5280 	orr.w	r2, r2, #268435456	@ 0x10000000
 80028c2:	641a      	str	r2, [r3, #64]	@ 0x40
 80028c4:	6c1b      	ldr	r3, [r3, #64]	@ 0x40
 80028c6:	f003 5380 	and.w	r3, r3, #268435456	@ 0x10000000
 80028ca:	9301      	str	r3, [sp, #4]
 80028cc:	9b01      	ldr	r3, [sp, #4]
 80028ce:	4d2e      	ldr	r5, [pc, #184]	@ (8002988 <HAL_RCC_OscConfig+0x288>)
 80028d0:	682b      	ldr	r3, [r5, #0]
 80028d2:	05d8      	lsls	r0, r3, #23
 80028d4:	d51b      	bpl.n	800290e <HAL_RCC_OscConfig+0x20e>
 80028d6:	68a3      	ldr	r3, [r4, #8]
 80028d8:	4d2a      	ldr	r5, [pc, #168]	@ (8002984 <HAL_RCC_OscConfig+0x284>)
 80028da:	2b01      	cmp	r3, #1
 80028dc:	d127      	bne.n	800292e <HAL_RCC_OscConfig+0x22e>
 80028de:	6f2b      	ldr	r3, [r5, #112]	@ 0x70
 80028e0:	f043 0301 	orr.w	r3, r3, #1
 80028e4:	672b      	str	r3, [r5, #112]	@ 0x70
 80028e6:	f241 3888 	movw	r8, #5000	@ 0x1388
 80028ea:	f7ff fb5d 	bl	8001fa8 <HAL_GetTick>
 80028ee:	4e25      	ldr	r6, [pc, #148]	@ (8002984 <HAL_RCC_OscConfig+0x284>)
 80028f0:	4605      	mov	r5, r0
 80028f2:	6f33      	ldr	r3, [r6, #112]	@ 0x70
 80028f4:	079a      	lsls	r2, r3, #30
 80028f6:	d53f      	bpl.n	8002978 <HAL_RCC_OscConfig+0x278>
 80028f8:	2f00      	cmp	r7, #0
 80028fa:	f43f af13 	beq.w	8002724 <HAL_RCC_OscConfig+0x24>
 80028fe:	4a21      	ldr	r2, [pc, #132]	@ (8002984 <HAL_RCC_OscConfig+0x284>)
 8002900:	6c13      	ldr	r3, [r2, #64]	@ 0x40
 8002902:	f023 5380 	bic.w	r3, r3, #268435456	@ 0x10000000
 8002906:	6413      	str	r3, [r2, #64]	@ 0x40
 8002908:	e70c      	b.n	8002724 <HAL_RCC_OscConfig+0x24>
 800290a:	2700      	movs	r7, #0
 800290c:	e7df      	b.n	80028ce <HAL_RCC_OscConfig+0x1ce>
 800290e:	682b      	ldr	r3, [r5, #0]
 8002910:	f443 7380 	orr.w	r3, r3, #256	@ 0x100
 8002914:	602b      	str	r3, [r5, #0]
 8002916:	f7ff fb47 	bl	8001fa8 <HAL_GetTick>
 800291a:	4606      	mov	r6, r0
 800291c:	682b      	ldr	r3, [r5, #0]
 800291e:	05d9      	lsls	r1, r3, #23
 8002920:	d4d9      	bmi.n	80028d6 <HAL_RCC_OscConfig+0x1d6>
 8002922:	f7ff fb41 	bl	8001fa8 <HAL_GetTick>
 8002926:	1b80      	subs	r0, r0, r6
 8002928:	2864      	cmp	r0, #100	@ 0x64
 800292a:	d9f7      	bls.n	800291c <HAL_RCC_OscConfig+0x21c>
 800292c:	e72c      	b.n	8002788 <HAL_RCC_OscConfig+0x88>
 800292e:	b9ab      	cbnz	r3, 800295c <HAL_RCC_OscConfig+0x25c>
 8002930:	6f2b      	ldr	r3, [r5, #112]	@ 0x70
 8002932:	f241 3888 	movw	r8, #5000	@ 0x1388
 8002936:	f023 0301 	bic.w	r3, r3, #1
 800293a:	672b      	str	r3, [r5, #112]	@ 0x70
 800293c:	6f2b      	ldr	r3, [r5, #112]	@ 0x70
 800293e:	f023 0304 	bic.w	r3, r3, #4
 8002942:	672b      	str	r3, [r5, #112]	@ 0x70
 8002944:	f7ff fb30 	bl	8001fa8 <HAL_GetTick>
 8002948:	4606      	mov	r6, r0
 800294a:	6f2b      	ldr	r3, [r5, #112]	@ 0x70
 800294c:	079b      	lsls	r3, r3, #30
 800294e:	d5d3      	bpl.n	80028f8 <HAL_RCC_OscConfig+0x1f8>
 8002950:	f7ff fb2a 	bl	8001fa8 <HAL_GetTick>
 8002954:	1b80      	subs	r0, r0, r6
 8002956:	4540      	cmp	r0, r8
 8002958:	d9f7      	bls.n	800294a <HAL_RCC_OscConfig+0x24a>
 800295a:	e715      	b.n	8002788 <HAL_RCC_OscConfig+0x88>
 800295c:	2b05      	cmp	r3, #5
 800295e:	6f2b      	ldr	r3, [r5, #112]	@ 0x70
 8002960:	d103      	bne.n	800296a <HAL_RCC_OscConfig+0x26a>
 8002962:	f043 0304 	orr.w	r3, r3, #4
 8002966:	672b      	str	r3, [r5, #112]	@ 0x70
 8002968:	e7b9      	b.n	80028de <HAL_RCC_OscConfig+0x1de>
 800296a:	f023 0301 	bic.w	r3, r3, #1
 800296e:	672b      	str	r3, [r5, #112]	@ 0x70
 8002970:	6f2b      	ldr	r3, [r5, #112]	@ 0x70
 8002972:	f023 0304 	bic.w	r3, r3, #4
 8002976:	e7b5      	b.n	80028e4 <HAL_RCC_OscConfig+0x1e4>
 8002978:	f7ff fb16 	bl	8001fa8 <HAL_GetTick>
 800297c:	1b40      	subs	r0, r0, r5
 800297e:	4540      	cmp	r0, r8
 8002980:	d9b7      	bls.n	80028f2 <HAL_RCC_OscConfig+0x1f2>
 8002982:	e701      	b.n	8002788 <HAL_RCC_OscConfig+0x88>
 8002984:	40023800 	.word	0x40023800
 8002988:	40007000 	.word	0x40007000
 800298c:	4d38      	ldr	r5, [pc, #224]	@ (8002a70 <HAL_RCC_OscConfig+0x370>)
 800298e:	68ab      	ldr	r3, [r5, #8]
 8002990:	f003 030c 	and.w	r3, r3, #12
 8002994:	2b08      	cmp	r3, #8
 8002996:	d041      	beq.n	8002a1c <HAL_RCC_OscConfig+0x31c>
 8002998:	682b      	ldr	r3, [r5, #0]
 800299a:	2a02      	cmp	r2, #2
 800299c:	f023 7380 	bic.w	r3, r3, #16777216	@ 0x1000000
 80029a0:	602b      	str	r3, [r5, #0]
 80029a2:	d12e      	bne.n	8002a02 <HAL_RCC_OscConfig+0x302>
 80029a4:	f7ff fb00 	bl	8001fa8 <HAL_GetTick>
 80029a8:	4606      	mov	r6, r0
 80029aa:	682b      	ldr	r3, [r5, #0]
 80029ac:	0199      	lsls	r1, r3, #6
 80029ae:	d422      	bmi.n	80029f6 <HAL_RCC_OscConfig+0x2f6>
 80029b0:	6aa3      	ldr	r3, [r4, #40]	@ 0x28
 80029b2:	085b      	lsrs	r3, r3, #1
 80029b4:	1e5a      	subs	r2, r3, #1
 80029b6:	e9d4 3107 	ldrd	r3, r1, [r4, #28]
 80029ba:	430b      	orrs	r3, r1
 80029bc:	ea43 4302 	orr.w	r3, r3, r2, lsl #16
 80029c0:	6a62      	ldr	r2, [r4, #36]	@ 0x24
 80029c2:	ea43 1382 	orr.w	r3, r3, r2, lsl #6
 80029c6:	6ae2      	ldr	r2, [r4, #44]	@ 0x2c
 80029c8:	ea43 6302 	orr.w	r3, r3, r2, lsl #24
 80029cc:	f043 5300 	orr.w	r3, r3, #536870912	@ 0x20000000
 80029d0:	606b      	str	r3, [r5, #4]
 80029d2:	682b      	ldr	r3, [r5, #0]
 80029d4:	f043 7380 	orr.w	r3, r3, #16777216	@ 0x1000000
 80029d8:	602b      	str	r3, [r5, #0]
 80029da:	f7ff fae5 	bl	8001fa8 <HAL_GetTick>
 80029de:	4d24      	ldr	r5, [pc, #144]	@ (8002a70 <HAL_RCC_OscConfig+0x370>)
 80029e0:	4604      	mov	r4, r0
 80029e2:	682b      	ldr	r3, [r5, #0]
 80029e4:	019a      	lsls	r2, r3, #6
 80029e6:	f53f aea1 	bmi.w	800272c <HAL_RCC_OscConfig+0x2c>
 80029ea:	f7ff fadd 	bl	8001fa8 <HAL_GetTick>
 80029ee:	1b00      	subs	r0, r0, r4
 80029f0:	2802      	cmp	r0, #2
 80029f2:	d9f6      	bls.n	80029e2 <HAL_RCC_OscConfig+0x2e2>
 80029f4:	e6c8      	b.n	8002788 <HAL_RCC_OscConfig+0x88>
 80029f6:	f7ff fad7 	bl	8001fa8 <HAL_GetTick>
 80029fa:	1b80      	subs	r0, r0, r6
 80029fc:	2802      	cmp	r0, #2
 80029fe:	d9d4      	bls.n	80029aa <HAL_RCC_OscConfig+0x2aa>
 8002a00:	e6c2      	b.n	8002788 <HAL_RCC_OscConfig+0x88>
 8002a02:	f7ff fad1 	bl	8001fa8 <HAL_GetTick>
 8002a06:	4604      	mov	r4, r0
 8002a08:	682b      	ldr	r3, [r5, #0]
 8002a0a:	019b      	lsls	r3, r3, #6
 8002a0c:	f57f ae8e 	bpl.w	800272c <HAL_RCC_OscConfig+0x2c>
 8002a10:	f7ff faca 	bl	8001fa8 <HAL_GetTick>
 8002a14:	1b00      	subs	r0, r0, r4
 8002a16:	2802      	cmp	r0, #2
 8002a18:	d9f6      	bls.n	8002a08 <HAL_RCC_OscConfig+0x308>
 8002a1a:	e6b5      	b.n	8002788 <HAL_RCC_OscConfig+0x88>
 8002a1c:	2a01      	cmp	r2, #1
 8002a1e:	686b      	ldr	r3, [r5, #4]
 8002a20:	f43f ae9b 	beq.w	800275a <HAL_RCC_OscConfig+0x5a>
 8002a24:	f403 0280 	and.w	r2, r3, #4194304	@ 0x400000
 8002a28:	69e1      	ldr	r1, [r4, #28]
 8002a2a:	428a      	cmp	r2, r1
 8002a2c:	f47f ae95 	bne.w	800275a <HAL_RCC_OscConfig+0x5a>
 8002a30:	f003 023f 	and.w	r2, r3, #63	@ 0x3f
 8002a34:	6a21      	ldr	r1, [r4, #32]
 8002a36:	428a      	cmp	r2, r1
 8002a38:	f47f ae8f 	bne.w	800275a <HAL_RCC_OscConfig+0x5a>
 8002a3c:	f647 72c0 	movw	r2, #32704	@ 0x7fc0
 8002a40:	6a61      	ldr	r1, [r4, #36]	@ 0x24
 8002a42:	401a      	ands	r2, r3
 8002a44:	ebb2 1f81 	cmp.w	r2, r1, lsl #6
 8002a48:	f47f ae87 	bne.w	800275a <HAL_RCC_OscConfig+0x5a>
 8002a4c:	6aa2      	ldr	r2, [r4, #40]	@ 0x28
 8002a4e:	f403 3140 	and.w	r1, r3, #196608	@ 0x30000
 8002a52:	0852      	lsrs	r2, r2, #1
 8002a54:	3a01      	subs	r2, #1
 8002a56:	ebb1 4f02 	cmp.w	r1, r2, lsl #16
 8002a5a:	f47f ae7e 	bne.w	800275a <HAL_RCC_OscConfig+0x5a>
 8002a5e:	6ae2      	ldr	r2, [r4, #44]	@ 0x2c
 8002a60:	f003 6370 	and.w	r3, r3, #251658240	@ 0xf000000
 8002a64:	ebb3 6f02 	cmp.w	r3, r2, lsl #24
 8002a68:	bf14      	ite	ne
 8002a6a:	2001      	movne	r0, #1
 8002a6c:	2000      	moveq	r0, #0
 8002a6e:	e68c      	b.n	800278a <HAL_RCC_OscConfig+0x8a>
 8002a70:	40023800 	.word	0x40023800

08002a74 <HAL_RCC_GetSysClockFreq>:
 8002a74:	4913      	ldr	r1, [pc, #76]	@ (8002ac4 <HAL_RCC_GetSysClockFreq+0x50>)
 8002a76:	b508      	push	{r3, lr}
 8002a78:	688b      	ldr	r3, [r1, #8]
 8002a7a:	f003 030c 	and.w	r3, r3, #12
 8002a7e:	2b04      	cmp	r3, #4
 8002a80:	d01b      	beq.n	8002aba <HAL_RCC_GetSysClockFreq+0x46>
 8002a82:	2b08      	cmp	r3, #8
 8002a84:	d11b      	bne.n	8002abe <HAL_RCC_GetSysClockFreq+0x4a>
 8002a86:	684a      	ldr	r2, [r1, #4]
 8002a88:	684b      	ldr	r3, [r1, #4]
 8002a8a:	6849      	ldr	r1, [r1, #4]
 8002a8c:	f002 023f 	and.w	r2, r2, #63	@ 0x3f
 8002a90:	f413 0380 	ands.w	r3, r3, #4194304	@ 0x400000
 8002a94:	f3c1 1188 	ubfx	r1, r1, #6, #9
 8002a98:	bf1a      	itte	ne
 8002a9a:	480b      	ldrne	r0, [pc, #44]	@ (8002ac8 <HAL_RCC_GetSysClockFreq+0x54>)
 8002a9c:	2300      	movne	r3, #0
 8002a9e:	480b      	ldreq	r0, [pc, #44]	@ (8002acc <HAL_RCC_GetSysClockFreq+0x58>)
 8002aa0:	fba1 0100 	umull	r0, r1, r1, r0
 8002aa4:	f7fd fc04 	bl	80002b0 <__aeabi_uldivmod>
 8002aa8:	4b06      	ldr	r3, [pc, #24]	@ (8002ac4 <HAL_RCC_GetSysClockFreq+0x50>)
 8002aaa:	685b      	ldr	r3, [r3, #4]
 8002aac:	f3c3 4301 	ubfx	r3, r3, #16, #2
 8002ab0:	3301      	adds	r3, #1
 8002ab2:	005b      	lsls	r3, r3, #1
 8002ab4:	fbb0 f0f3 	udiv	r0, r0, r3
 8002ab8:	bd08      	pop	{r3, pc}
 8002aba:	4803      	ldr	r0, [pc, #12]	@ (8002ac8 <HAL_RCC_GetSysClockFreq+0x54>)
 8002abc:	e7fc      	b.n	8002ab8 <HAL_RCC_GetSysClockFreq+0x44>
 8002abe:	4803      	ldr	r0, [pc, #12]	@ (8002acc <HAL_RCC_GetSysClockFreq+0x58>)
 8002ac0:	e7fa      	b.n	8002ab8 <HAL_RCC_GetSysClockFreq+0x44>
 8002ac2:	bf00      	nop
 8002ac4:	40023800 	.word	0x40023800
 8002ac8:	007a1200 	.word	0x007a1200
 8002acc:	00f42400 	.word	0x00f42400

08002ad0 <HAL_RCC_ClockConfig>:
 8002ad0:	e92d 41f0 	stmdb	sp!, {r4, r5, r6, r7, r8, lr}
 8002ad4:	460d      	mov	r5, r1
 8002ad6:	4604      	mov	r4, r0
 8002ad8:	b910      	cbnz	r0, 8002ae0 <HAL_RCC_ClockConfig+0x10>
 8002ada:	2001      	movs	r0, #1
 8002adc:	e8bd 81f0 	ldmia.w	sp!, {r4, r5, r6, r7, r8, pc}
 8002ae0:	4a45      	ldr	r2, [pc, #276]	@ (8002bf8 <HAL_RCC_ClockConfig+0x128>)
 8002ae2:	6813      	ldr	r3, [r2, #0]
 8002ae4:	f003 030f 	and.w	r3, r3, #15
 8002ae8:	428b      	cmp	r3, r1
 8002aea:	d328      	bcc.n	8002b3e <HAL_RCC_ClockConfig+0x6e>
 8002aec:	6821      	ldr	r1, [r4, #0]
 8002aee:	078f      	lsls	r7, r1, #30
 8002af0:	d430      	bmi.n	8002b54 <HAL_RCC_ClockConfig+0x84>
 8002af2:	07c8      	lsls	r0, r1, #31
 8002af4:	d443      	bmi.n	8002b7e <HAL_RCC_ClockConfig+0xae>
 8002af6:	4a40      	ldr	r2, [pc, #256]	@ (8002bf8 <HAL_RCC_ClockConfig+0x128>)
 8002af8:	6813      	ldr	r3, [r2, #0]
 8002afa:	f003 030f 	and.w	r3, r3, #15
 8002afe:	42ab      	cmp	r3, r5
 8002b00:	d866      	bhi.n	8002bd0 <HAL_RCC_ClockConfig+0x100>
 8002b02:	6822      	ldr	r2, [r4, #0]
 8002b04:	0751      	lsls	r1, r2, #29
 8002b06:	d46f      	bmi.n	8002be8 <HAL_RCC_ClockConfig+0x118>
 8002b08:	0713      	lsls	r3, r2, #28
 8002b0a:	d507      	bpl.n	8002b1c <HAL_RCC_ClockConfig+0x4c>
 8002b0c:	4a3b      	ldr	r2, [pc, #236]	@ (8002bfc <HAL_RCC_ClockConfig+0x12c>)
 8002b0e:	6921      	ldr	r1, [r4, #16]
 8002b10:	6893      	ldr	r3, [r2, #8]
 8002b12:	f423 4360 	bic.w	r3, r3, #57344	@ 0xe000
 8002b16:	ea43 03c1 	orr.w	r3, r3, r1, lsl #3
 8002b1a:	6093      	str	r3, [r2, #8]
 8002b1c:	f7ff ffaa 	bl	8002a74 <HAL_RCC_GetSysClockFreq>
 8002b20:	4b36      	ldr	r3, [pc, #216]	@ (8002bfc <HAL_RCC_ClockConfig+0x12c>)
 8002b22:	4a37      	ldr	r2, [pc, #220]	@ (8002c00 <HAL_RCC_ClockConfig+0x130>)
 8002b24:	689b      	ldr	r3, [r3, #8]
 8002b26:	f3c3 1303 	ubfx	r3, r3, #4, #4
 8002b2a:	5cd3      	ldrb	r3, [r2, r3]
 8002b2c:	40d8      	lsrs	r0, r3
 8002b2e:	4b35      	ldr	r3, [pc, #212]	@ (8002c04 <HAL_RCC_ClockConfig+0x134>)
 8002b30:	6018      	str	r0, [r3, #0]
 8002b32:	4b35      	ldr	r3, [pc, #212]	@ (8002c08 <HAL_RCC_ClockConfig+0x138>)
 8002b34:	6818      	ldr	r0, [r3, #0]
 8002b36:	f7ff f9fb 	bl	8001f30 <HAL_InitTick>
 8002b3a:	2000      	movs	r0, #0
 8002b3c:	e7ce      	b.n	8002adc <HAL_RCC_ClockConfig+0xc>
 8002b3e:	6813      	ldr	r3, [r2, #0]
 8002b40:	f023 030f 	bic.w	r3, r3, #15
 8002b44:	430b      	orrs	r3, r1
 8002b46:	6013      	str	r3, [r2, #0]
 8002b48:	6813      	ldr	r3, [r2, #0]
 8002b4a:	f003 030f 	and.w	r3, r3, #15
 8002b4e:	428b      	cmp	r3, r1
 8002b50:	d1c3      	bne.n	8002ada <HAL_RCC_ClockConfig+0xa>
 8002b52:	e7cb      	b.n	8002aec <HAL_RCC_ClockConfig+0x1c>
 8002b54:	f011 0f04 	tst.w	r1, #4
 8002b58:	4b28      	ldr	r3, [pc, #160]	@ (8002bfc <HAL_RCC_ClockConfig+0x12c>)
 8002b5a:	d003      	beq.n	8002b64 <HAL_RCC_ClockConfig+0x94>
 8002b5c:	689a      	ldr	r2, [r3, #8]
 8002b5e:	f442 52e0 	orr.w	r2, r2, #7168	@ 0x1c00
 8002b62:	609a      	str	r2, [r3, #8]
 8002b64:	070e      	lsls	r6, r1, #28
 8002b66:	d503      	bpl.n	8002b70 <HAL_RCC_ClockConfig+0xa0>
 8002b68:	689a      	ldr	r2, [r3, #8]
 8002b6a:	f442 4260 	orr.w	r2, r2, #57344	@ 0xe000
 8002b6e:	609a      	str	r2, [r3, #8]
 8002b70:	689a      	ldr	r2, [r3, #8]
 8002b72:	68a0      	ldr	r0, [r4, #8]
 8002b74:	f022 02f0 	bic.w	r2, r2, #240	@ 0xf0
 8002b78:	4302      	orrs	r2, r0
 8002b7a:	609a      	str	r2, [r3, #8]
 8002b7c:	e7b9      	b.n	8002af2 <HAL_RCC_ClockConfig+0x22>
 8002b7e:	6861      	ldr	r1, [r4, #4]
 8002b80:	4b1e      	ldr	r3, [pc, #120]	@ (8002bfc <HAL_RCC_ClockConfig+0x12c>)
 8002b82:	2901      	cmp	r1, #1
 8002b84:	681a      	ldr	r2, [r3, #0]
 8002b86:	d11b      	bne.n	8002bc0 <HAL_RCC_ClockConfig+0xf0>
 8002b88:	f412 3f00 	tst.w	r2, #131072	@ 0x20000
 8002b8c:	d0a5      	beq.n	8002ada <HAL_RCC_ClockConfig+0xa>
 8002b8e:	689a      	ldr	r2, [r3, #8]
 8002b90:	f241 3888 	movw	r8, #5000	@ 0x1388
 8002b94:	4f19      	ldr	r7, [pc, #100]	@ (8002bfc <HAL_RCC_ClockConfig+0x12c>)
 8002b96:	f022 0203 	bic.w	r2, r2, #3
 8002b9a:	430a      	orrs	r2, r1
 8002b9c:	609a      	str	r2, [r3, #8]
 8002b9e:	f7ff fa03 	bl	8001fa8 <HAL_GetTick>
 8002ba2:	4606      	mov	r6, r0
 8002ba4:	68bb      	ldr	r3, [r7, #8]
 8002ba6:	6862      	ldr	r2, [r4, #4]
 8002ba8:	f003 030c 	and.w	r3, r3, #12
 8002bac:	ebb3 0f82 	cmp.w	r3, r2, lsl #2
 8002bb0:	d0a1      	beq.n	8002af6 <HAL_RCC_ClockConfig+0x26>
 8002bb2:	f7ff f9f9 	bl	8001fa8 <HAL_GetTick>
 8002bb6:	1b80      	subs	r0, r0, r6
 8002bb8:	4540      	cmp	r0, r8
 8002bba:	d9f3      	bls.n	8002ba4 <HAL_RCC_ClockConfig+0xd4>
 8002bbc:	2003      	movs	r0, #3
 8002bbe:	e78d      	b.n	8002adc <HAL_RCC_ClockConfig+0xc>
 8002bc0:	2902      	cmp	r1, #2
 8002bc2:	d102      	bne.n	8002bca <HAL_RCC_ClockConfig+0xfa>
 8002bc4:	f012 7f00 	tst.w	r2, #33554432	@ 0x2000000
 8002bc8:	e7e0      	b.n	8002b8c <HAL_RCC_ClockConfig+0xbc>
 8002bca:	f012 0f02 	tst.w	r2, #2
 8002bce:	e7dd      	b.n	8002b8c <HAL_RCC_ClockConfig+0xbc>
 8002bd0:	6813      	ldr	r3, [r2, #0]
 8002bd2:	f023 030f 	bic.w	r3, r3, #15
 8002bd6:	432b      	orrs	r3, r5
 8002bd8:	6013      	str	r3, [r2, #0]
 8002bda:	6813      	ldr	r3, [r2, #0]
 8002bdc:	f003 030f 	and.w	r3, r3, #15
 8002be0:	42ab      	cmp	r3, r5
 8002be2:	f47f af7a 	bne.w	8002ada <HAL_RCC_ClockConfig+0xa>
 8002be6:	e78c      	b.n	8002b02 <HAL_RCC_ClockConfig+0x32>
 8002be8:	4904      	ldr	r1, [pc, #16]	@ (8002bfc <HAL_RCC_ClockConfig+0x12c>)
 8002bea:	68e0      	ldr	r0, [r4, #12]
 8002bec:	688b      	ldr	r3, [r1, #8]
 8002bee:	f423 53e0 	bic.w	r3, r3, #7168	@ 0x1c00
 8002bf2:	4303      	orrs	r3, r0
 8002bf4:	608b      	str	r3, [r1, #8]
 8002bf6:	e787      	b.n	8002b08 <HAL_RCC_ClockConfig+0x38>
 8002bf8:	40023c00 	.word	0x40023c00
 8002bfc:	40023800 	.word	0x40023800
 8002c00:	08004cf8 	.word	0x08004cf8
 8002c04:	20000020 	.word	0x20000020
 8002c08:	20000028 	.word	0x20000028

08002c0c <HAL_RCC_GetPCLK1Freq>:
 8002c0c:	4b04      	ldr	r3, [pc, #16]	@ (8002c20 <HAL_RCC_GetPCLK1Freq+0x14>)
 8002c0e:	4a05      	ldr	r2, [pc, #20]	@ (8002c24 <HAL_RCC_GetPCLK1Freq+0x18>)
 8002c10:	689b      	ldr	r3, [r3, #8]
 8002c12:	f3c3 2382 	ubfx	r3, r3, #10, #3
 8002c16:	5cd3      	ldrb	r3, [r2, r3]
 8002c18:	4a03      	ldr	r2, [pc, #12]	@ (8002c28 <HAL_RCC_GetPCLK1Freq+0x1c>)
 8002c1a:	6810      	ldr	r0, [r2, #0]
 8002c1c:	40d8      	lsrs	r0, r3
 8002c1e:	4770      	bx	lr
 8002c20:	40023800 	.word	0x40023800
 8002c24:	08004cf0 	.word	0x08004cf0
 8002c28:	20000020 	.word	0x20000020

08002c2c <HAL_RCC_GetPCLK2Freq>:
 8002c2c:	4b04      	ldr	r3, [pc, #16]	@ (8002c40 <HAL_RCC_GetPCLK2Freq+0x14>)
 8002c2e:	4a05      	ldr	r2, [pc, #20]	@ (8002c44 <HAL_RCC_GetPCLK2Freq+0x18>)
 8002c30:	689b      	ldr	r3, [r3, #8]
 8002c32:	f3c3 3342 	ubfx	r3, r3, #13, #3
 8002c36:	5cd3      	ldrb	r3, [r2, r3]
 8002c38:	4a03      	ldr	r2, [pc, #12]	@ (8002c48 <HAL_RCC_GetPCLK2Freq+0x1c>)
 8002c3a:	6810      	ldr	r0, [r2, #0]
 8002c3c:	40d8      	lsrs	r0, r3
 8002c3e:	4770      	bx	lr
 8002c40:	40023800 	.word	0x40023800
 8002c44:	08004cf0 	.word	0x08004cf0
 8002c48:	20000020 	.word	0x20000020

08002c4c <HAL_RCCEx_PeriphCLKConfig>:
 8002c4c:	6803      	ldr	r3, [r0, #0]
 8002c4e:	e92d 43f7 	stmdb	sp!, {r0, r1, r2, r4, r5, r6, r7, r8, r9, lr}
 8002c52:	f013 0601 	ands.w	r6, r3, #1
 8002c56:	4604      	mov	r4, r0
 8002c58:	d00b      	beq.n	8002c72 <HAL_RCCEx_PeriphCLKConfig+0x26>
 8002c5a:	4aad      	ldr	r2, [pc, #692]	@ (8002f10 <HAL_RCCEx_PeriphCLKConfig+0x2c4>)
 8002c5c:	6891      	ldr	r1, [r2, #8]
 8002c5e:	f421 0100 	bic.w	r1, r1, #8388608	@ 0x800000
 8002c62:	6091      	str	r1, [r2, #8]
 8002c64:	6b46      	ldr	r6, [r0, #52]	@ 0x34
 8002c66:	6891      	ldr	r1, [r2, #8]
 8002c68:	4331      	orrs	r1, r6
 8002c6a:	fab6 f686 	clz	r6, r6
 8002c6e:	0976      	lsrs	r6, r6, #5
 8002c70:	6091      	str	r1, [r2, #8]
 8002c72:	f413 2500 	ands.w	r5, r3, #524288	@ 0x80000
 8002c76:	d012      	beq.n	8002c9e <HAL_RCCEx_PeriphCLKConfig+0x52>
 8002c78:	49a5      	ldr	r1, [pc, #660]	@ (8002f10 <HAL_RCCEx_PeriphCLKConfig+0x2c4>)
 8002c7a:	6be5      	ldr	r5, [r4, #60]	@ 0x3c
 8002c7c:	f8d1 208c 	ldr.w	r2, [r1, #140]	@ 0x8c
 8002c80:	f5b5 1f80 	cmp.w	r5, #1048576	@ 0x100000
 8002c84:	f422 1240 	bic.w	r2, r2, #3145728	@ 0x300000
 8002c88:	bf08      	it	eq
 8002c8a:	2601      	moveq	r6, #1
 8002c8c:	ea42 0205 	orr.w	r2, r2, r5
 8002c90:	bf16      	itet	ne
 8002c92:	fab5 f585 	clzne	r5, r5
 8002c96:	2500      	moveq	r5, #0
 8002c98:	096d      	lsrne	r5, r5, #5
 8002c9a:	f8c1 208c 	str.w	r2, [r1, #140]	@ 0x8c
 8002c9e:	02d8      	lsls	r0, r3, #11
 8002ca0:	d510      	bpl.n	8002cc4 <HAL_RCCEx_PeriphCLKConfig+0x78>
 8002ca2:	489b      	ldr	r0, [pc, #620]	@ (8002f10 <HAL_RCCEx_PeriphCLKConfig+0x2c4>)
 8002ca4:	6c21      	ldr	r1, [r4, #64]	@ 0x40
 8002ca6:	f8d0 208c 	ldr.w	r2, [r0, #140]	@ 0x8c
 8002caa:	f5b1 0f80 	cmp.w	r1, #4194304	@ 0x400000
 8002cae:	f422 0240 	bic.w	r2, r2, #12582912	@ 0xc00000
 8002cb2:	ea42 0201 	orr.w	r2, r2, r1
 8002cb6:	f8c0 208c 	str.w	r2, [r0, #140]	@ 0x8c
 8002cba:	f000 8186 	beq.w	8002fca <HAL_RCCEx_PeriphCLKConfig+0x37e>
 8002cbe:	2900      	cmp	r1, #0
 8002cc0:	bf08      	it	eq
 8002cc2:	2501      	moveq	r5, #1
 8002cc4:	f013 7f80 	tst.w	r3, #16777216	@ 0x1000000
 8002cc8:	bf18      	it	ne
 8002cca:	2601      	movne	r6, #1
 8002ccc:	0699      	lsls	r1, r3, #26
 8002cce:	d532      	bpl.n	8002d36 <HAL_RCCEx_PeriphCLKConfig+0xea>
 8002cd0:	4b8f      	ldr	r3, [pc, #572]	@ (8002f10 <HAL_RCCEx_PeriphCLKConfig+0x2c4>)
 8002cd2:	4f90      	ldr	r7, [pc, #576]	@ (8002f14 <HAL_RCCEx_PeriphCLKConfig+0x2c8>)
 8002cd4:	6c1a      	ldr	r2, [r3, #64]	@ 0x40
 8002cd6:	f042 5280 	orr.w	r2, r2, #268435456	@ 0x10000000
 8002cda:	641a      	str	r2, [r3, #64]	@ 0x40
 8002cdc:	6c1b      	ldr	r3, [r3, #64]	@ 0x40
 8002cde:	f003 5380 	and.w	r3, r3, #268435456	@ 0x10000000
 8002ce2:	9301      	str	r3, [sp, #4]
 8002ce4:	9b01      	ldr	r3, [sp, #4]
 8002ce6:	683b      	ldr	r3, [r7, #0]
 8002ce8:	f443 7380 	orr.w	r3, r3, #256	@ 0x100
 8002cec:	603b      	str	r3, [r7, #0]
 8002cee:	f7ff f95b 	bl	8001fa8 <HAL_GetTick>
 8002cf2:	4680      	mov	r8, r0
 8002cf4:	683b      	ldr	r3, [r7, #0]
 8002cf6:	05da      	lsls	r2, r3, #23
 8002cf8:	f140 8169 	bpl.w	8002fce <HAL_RCCEx_PeriphCLKConfig+0x382>
 8002cfc:	4f84      	ldr	r7, [pc, #528]	@ (8002f10 <HAL_RCCEx_PeriphCLKConfig+0x2c4>)
 8002cfe:	6b22      	ldr	r2, [r4, #48]	@ 0x30
 8002d00:	6f3b      	ldr	r3, [r7, #112]	@ 0x70
 8002d02:	f413 7340 	ands.w	r3, r3, #768	@ 0x300
 8002d06:	f040 816d 	bne.w	8002fe4 <HAL_RCCEx_PeriphCLKConfig+0x398>
 8002d0a:	6b23      	ldr	r3, [r4, #48]	@ 0x30
 8002d0c:	f403 7240 	and.w	r2, r3, #768	@ 0x300
 8002d10:	f5b2 7f40 	cmp.w	r2, #768	@ 0x300
 8002d14:	4a7e      	ldr	r2, [pc, #504]	@ (8002f10 <HAL_RCCEx_PeriphCLKConfig+0x2c4>)
 8002d16:	f040 818a 	bne.w	800302e <HAL_RCCEx_PeriphCLKConfig+0x3e2>
 8002d1a:	6891      	ldr	r1, [r2, #8]
 8002d1c:	f023 4070 	bic.w	r0, r3, #4026531840	@ 0xf0000000
 8002d20:	f421 11f8 	bic.w	r1, r1, #2031616	@ 0x1f0000
 8002d24:	f420 7040 	bic.w	r0, r0, #768	@ 0x300
 8002d28:	4301      	orrs	r1, r0
 8002d2a:	6091      	str	r1, [r2, #8]
 8002d2c:	f3c3 030b 	ubfx	r3, r3, #0, #12
 8002d30:	6f11      	ldr	r1, [r2, #112]	@ 0x70
 8002d32:	430b      	orrs	r3, r1
 8002d34:	6713      	str	r3, [r2, #112]	@ 0x70
 8002d36:	6823      	ldr	r3, [r4, #0]
 8002d38:	06d9      	lsls	r1, r3, #27
 8002d3a:	d50c      	bpl.n	8002d56 <HAL_RCCEx_PeriphCLKConfig+0x10a>
 8002d3c:	4a74      	ldr	r2, [pc, #464]	@ (8002f10 <HAL_RCCEx_PeriphCLKConfig+0x2c4>)
 8002d3e:	f8d2 108c 	ldr.w	r1, [r2, #140]	@ 0x8c
 8002d42:	f021 7180 	bic.w	r1, r1, #16777216	@ 0x1000000
 8002d46:	f8c2 108c 	str.w	r1, [r2, #140]	@ 0x8c
 8002d4a:	f8d2 108c 	ldr.w	r1, [r2, #140]	@ 0x8c
 8002d4e:	6ba0      	ldr	r0, [r4, #56]	@ 0x38
 8002d50:	4301      	orrs	r1, r0
 8002d52:	f8c2 108c 	str.w	r1, [r2, #140]	@ 0x8c
 8002d56:	045a      	lsls	r2, r3, #17
 8002d58:	d508      	bpl.n	8002d6c <HAL_RCCEx_PeriphCLKConfig+0x120>
 8002d5a:	496d      	ldr	r1, [pc, #436]	@ (8002f10 <HAL_RCCEx_PeriphCLKConfig+0x2c4>)
 8002d5c:	6e60      	ldr	r0, [r4, #100]	@ 0x64
 8002d5e:	f8d1 2090 	ldr.w	r2, [r1, #144]	@ 0x90
 8002d62:	f422 3240 	bic.w	r2, r2, #196608	@ 0x30000
 8002d66:	4302      	orrs	r2, r0
 8002d68:	f8c1 2090 	str.w	r2, [r1, #144]	@ 0x90
 8002d6c:	041f      	lsls	r7, r3, #16
 8002d6e:	d508      	bpl.n	8002d82 <HAL_RCCEx_PeriphCLKConfig+0x136>
 8002d70:	4967      	ldr	r1, [pc, #412]	@ (8002f10 <HAL_RCCEx_PeriphCLKConfig+0x2c4>)
 8002d72:	6ea0      	ldr	r0, [r4, #104]	@ 0x68
 8002d74:	f8d1 2090 	ldr.w	r2, [r1, #144]	@ 0x90
 8002d78:	f422 2240 	bic.w	r2, r2, #786432	@ 0xc0000
 8002d7c:	4302      	orrs	r2, r0
 8002d7e:	f8c1 2090 	str.w	r2, [r1, #144]	@ 0x90
 8002d82:	03d8      	lsls	r0, r3, #15
 8002d84:	d508      	bpl.n	8002d98 <HAL_RCCEx_PeriphCLKConfig+0x14c>
 8002d86:	4962      	ldr	r1, [pc, #392]	@ (8002f10 <HAL_RCCEx_PeriphCLKConfig+0x2c4>)
 8002d88:	6ee0      	ldr	r0, [r4, #108]	@ 0x6c
 8002d8a:	f8d1 2090 	ldr.w	r2, [r1, #144]	@ 0x90
 8002d8e:	f422 1240 	bic.w	r2, r2, #3145728	@ 0x300000
 8002d92:	4302      	orrs	r2, r0
 8002d94:	f8c1 2090 	str.w	r2, [r1, #144]	@ 0x90
 8002d98:	0399      	lsls	r1, r3, #14
 8002d9a:	d508      	bpl.n	8002dae <HAL_RCCEx_PeriphCLKConfig+0x162>
 8002d9c:	495c      	ldr	r1, [pc, #368]	@ (8002f10 <HAL_RCCEx_PeriphCLKConfig+0x2c4>)
 8002d9e:	6f20      	ldr	r0, [r4, #112]	@ 0x70
 8002da0:	f8d1 2090 	ldr.w	r2, [r1, #144]	@ 0x90
 8002da4:	f422 0240 	bic.w	r2, r2, #12582912	@ 0xc00000
 8002da8:	4302      	orrs	r2, r0
 8002daa:	f8c1 2090 	str.w	r2, [r1, #144]	@ 0x90
 8002dae:	065a      	lsls	r2, r3, #25
 8002db0:	d508      	bpl.n	8002dc4 <HAL_RCCEx_PeriphCLKConfig+0x178>
 8002db2:	4957      	ldr	r1, [pc, #348]	@ (8002f10 <HAL_RCCEx_PeriphCLKConfig+0x2c4>)
 8002db4:	6c60      	ldr	r0, [r4, #68]	@ 0x44
 8002db6:	f8d1 2090 	ldr.w	r2, [r1, #144]	@ 0x90
 8002dba:	f022 0203 	bic.w	r2, r2, #3
 8002dbe:	4302      	orrs	r2, r0
 8002dc0:	f8c1 2090 	str.w	r2, [r1, #144]	@ 0x90
 8002dc4:	061f      	lsls	r7, r3, #24
 8002dc6:	d508      	bpl.n	8002dda <HAL_RCCEx_PeriphCLKConfig+0x18e>
 8002dc8:	4951      	ldr	r1, [pc, #324]	@ (8002f10 <HAL_RCCEx_PeriphCLKConfig+0x2c4>)
 8002dca:	6ca0      	ldr	r0, [r4, #72]	@ 0x48
 8002dcc:	f8d1 2090 	ldr.w	r2, [r1, #144]	@ 0x90
 8002dd0:	f022 020c 	bic.w	r2, r2, #12
 8002dd4:	4302      	orrs	r2, r0
 8002dd6:	f8c1 2090 	str.w	r2, [r1, #144]	@ 0x90
 8002dda:	05d8      	lsls	r0, r3, #23
 8002ddc:	d508      	bpl.n	8002df0 <HAL_RCCEx_PeriphCLKConfig+0x1a4>
 8002dde:	494c      	ldr	r1, [pc, #304]	@ (8002f10 <HAL_RCCEx_PeriphCLKConfig+0x2c4>)
 8002de0:	6ce0      	ldr	r0, [r4, #76]	@ 0x4c
 8002de2:	f8d1 2090 	ldr.w	r2, [r1, #144]	@ 0x90
 8002de6:	f022 0230 	bic.w	r2, r2, #48	@ 0x30
 8002dea:	4302      	orrs	r2, r0
 8002dec:	f8c1 2090 	str.w	r2, [r1, #144]	@ 0x90
 8002df0:	0599      	lsls	r1, r3, #22
 8002df2:	d508      	bpl.n	8002e06 <HAL_RCCEx_PeriphCLKConfig+0x1ba>
 8002df4:	4946      	ldr	r1, [pc, #280]	@ (8002f10 <HAL_RCCEx_PeriphCLKConfig+0x2c4>)
 8002df6:	6d20      	ldr	r0, [r4, #80]	@ 0x50
 8002df8:	f8d1 2090 	ldr.w	r2, [r1, #144]	@ 0x90
 8002dfc:	f022 02c0 	bic.w	r2, r2, #192	@ 0xc0
 8002e00:	4302      	orrs	r2, r0
 8002e02:	f8c1 2090 	str.w	r2, [r1, #144]	@ 0x90
 8002e06:	055a      	lsls	r2, r3, #21
 8002e08:	d508      	bpl.n	8002e1c <HAL_RCCEx_PeriphCLKConfig+0x1d0>
 8002e0a:	4941      	ldr	r1, [pc, #260]	@ (8002f10 <HAL_RCCEx_PeriphCLKConfig+0x2c4>)
 8002e0c:	6d60      	ldr	r0, [r4, #84]	@ 0x54
 8002e0e:	f8d1 2090 	ldr.w	r2, [r1, #144]	@ 0x90
 8002e12:	f422 7240 	bic.w	r2, r2, #768	@ 0x300
 8002e16:	4302      	orrs	r2, r0
 8002e18:	f8c1 2090 	str.w	r2, [r1, #144]	@ 0x90
 8002e1c:	051f      	lsls	r7, r3, #20
 8002e1e:	d508      	bpl.n	8002e32 <HAL_RCCEx_PeriphCLKConfig+0x1e6>
 8002e20:	493b      	ldr	r1, [pc, #236]	@ (8002f10 <HAL_RCCEx_PeriphCLKConfig+0x2c4>)
 8002e22:	6da0      	ldr	r0, [r4, #88]	@ 0x58
 8002e24:	f8d1 2090 	ldr.w	r2, [r1, #144]	@ 0x90
 8002e28:	f422 6240 	bic.w	r2, r2, #3072	@ 0xc00
 8002e2c:	4302      	orrs	r2, r0
 8002e2e:	f8c1 2090 	str.w	r2, [r1, #144]	@ 0x90
 8002e32:	04d8      	lsls	r0, r3, #19
 8002e34:	d508      	bpl.n	8002e48 <HAL_RCCEx_PeriphCLKConfig+0x1fc>
 8002e36:	4936      	ldr	r1, [pc, #216]	@ (8002f10 <HAL_RCCEx_PeriphCLKConfig+0x2c4>)
 8002e38:	6de0      	ldr	r0, [r4, #92]	@ 0x5c
 8002e3a:	f8d1 2090 	ldr.w	r2, [r1, #144]	@ 0x90
 8002e3e:	f422 5240 	bic.w	r2, r2, #12288	@ 0x3000
 8002e42:	4302      	orrs	r2, r0
 8002e44:	f8c1 2090 	str.w	r2, [r1, #144]	@ 0x90
 8002e48:	0499      	lsls	r1, r3, #18
 8002e4a:	d508      	bpl.n	8002e5e <HAL_RCCEx_PeriphCLKConfig+0x212>
 8002e4c:	4930      	ldr	r1, [pc, #192]	@ (8002f10 <HAL_RCCEx_PeriphCLKConfig+0x2c4>)
 8002e4e:	6e20      	ldr	r0, [r4, #96]	@ 0x60
 8002e50:	f8d1 2090 	ldr.w	r2, [r1, #144]	@ 0x90
 8002e54:	f422 4240 	bic.w	r2, r2, #49152	@ 0xc000
 8002e58:	4302      	orrs	r2, r0
 8002e5a:	f8c1 2090 	str.w	r2, [r1, #144]	@ 0x90
 8002e5e:	025a      	lsls	r2, r3, #9
 8002e60:	d508      	bpl.n	8002e74 <HAL_RCCEx_PeriphCLKConfig+0x228>
 8002e62:	492b      	ldr	r1, [pc, #172]	@ (8002f10 <HAL_RCCEx_PeriphCLKConfig+0x2c4>)
 8002e64:	6fa0      	ldr	r0, [r4, #120]	@ 0x78
 8002e66:	f8d1 2090 	ldr.w	r2, [r1, #144]	@ 0x90
 8002e6a:	f022 6280 	bic.w	r2, r2, #67108864	@ 0x4000000
 8002e6e:	4302      	orrs	r2, r0
 8002e70:	f8c1 2090 	str.w	r2, [r1, #144]	@ 0x90
 8002e74:	029f      	lsls	r7, r3, #10
 8002e76:	d50c      	bpl.n	8002e92 <HAL_RCCEx_PeriphCLKConfig+0x246>
 8002e78:	4825      	ldr	r0, [pc, #148]	@ (8002f10 <HAL_RCCEx_PeriphCLKConfig+0x2c4>)
 8002e7a:	6fe1      	ldr	r1, [r4, #124]	@ 0x7c
 8002e7c:	f8d0 2090 	ldr.w	r2, [r0, #144]	@ 0x90
 8002e80:	f1b1 6f00 	cmp.w	r1, #134217728	@ 0x8000000
 8002e84:	f022 6200 	bic.w	r2, r2, #134217728	@ 0x8000000
 8002e88:	bf08      	it	eq
 8002e8a:	2501      	moveq	r5, #1
 8002e8c:	430a      	orrs	r2, r1
 8002e8e:	f8c0 2090 	str.w	r2, [r0, #144]	@ 0x90
 8002e92:	f013 0f08 	tst.w	r3, #8
 8002e96:	bf18      	it	ne
 8002e98:	2501      	movne	r5, #1
 8002e9a:	0358      	lsls	r0, r3, #13
 8002e9c:	d508      	bpl.n	8002eb0 <HAL_RCCEx_PeriphCLKConfig+0x264>
 8002e9e:	491c      	ldr	r1, [pc, #112]	@ (8002f10 <HAL_RCCEx_PeriphCLKConfig+0x2c4>)
 8002ea0:	6f60      	ldr	r0, [r4, #116]	@ 0x74
 8002ea2:	f8d1 2090 	ldr.w	r2, [r1, #144]	@ 0x90
 8002ea6:	f022 7240 	bic.w	r2, r2, #50331648	@ 0x3000000
 8002eaa:	4302      	orrs	r2, r0
 8002eac:	f8c1 2090 	str.w	r2, [r1, #144]	@ 0x90
 8002eb0:	0219      	lsls	r1, r3, #8
 8002eb2:	d509      	bpl.n	8002ec8 <HAL_RCCEx_PeriphCLKConfig+0x27c>
 8002eb4:	4916      	ldr	r1, [pc, #88]	@ (8002f10 <HAL_RCCEx_PeriphCLKConfig+0x2c4>)
 8002eb6:	f8d4 0080 	ldr.w	r0, [r4, #128]	@ 0x80
 8002eba:	f8d1 2090 	ldr.w	r2, [r1, #144]	@ 0x90
 8002ebe:	f022 5280 	bic.w	r2, r2, #268435456	@ 0x10000000
 8002ec2:	4302      	orrs	r2, r0
 8002ec4:	f8c1 2090 	str.w	r2, [r1, #144]	@ 0x90
 8002ec8:	2e01      	cmp	r6, #1
 8002eca:	f000 80b4 	beq.w	8003036 <HAL_RCCEx_PeriphCLKConfig+0x3ea>
 8002ece:	019a      	lsls	r2, r3, #6
 8002ed0:	f100 80b1 	bmi.w	8003036 <HAL_RCCEx_PeriphCLKConfig+0x3ea>
 8002ed4:	2d01      	cmp	r5, #1
 8002ed6:	d176      	bne.n	8002fc6 <HAL_RCCEx_PeriphCLKConfig+0x37a>
 8002ed8:	4d0d      	ldr	r5, [pc, #52]	@ (8002f10 <HAL_RCCEx_PeriphCLKConfig+0x2c4>)
 8002eda:	682b      	ldr	r3, [r5, #0]
 8002edc:	f023 5380 	bic.w	r3, r3, #268435456	@ 0x10000000
 8002ee0:	602b      	str	r3, [r5, #0]
 8002ee2:	f7ff f861 	bl	8001fa8 <HAL_GetTick>
 8002ee6:	4606      	mov	r6, r0
 8002ee8:	682b      	ldr	r3, [r5, #0]
 8002eea:	009f      	lsls	r7, r3, #2
 8002eec:	f100 8127 	bmi.w	800313e <HAL_RCCEx_PeriphCLKConfig+0x4f2>
 8002ef0:	6821      	ldr	r1, [r4, #0]
 8002ef2:	030e      	lsls	r6, r1, #12
 8002ef4:	d501      	bpl.n	8002efa <HAL_RCCEx_PeriphCLKConfig+0x2ae>
 8002ef6:	6be3      	ldr	r3, [r4, #60]	@ 0x3c
 8002ef8:	b11b      	cbz	r3, 8002f02 <HAL_RCCEx_PeriphCLKConfig+0x2b6>
 8002efa:	02cd      	lsls	r5, r1, #11
 8002efc:	d523      	bpl.n	8002f46 <HAL_RCCEx_PeriphCLKConfig+0x2fa>
 8002efe:	6c23      	ldr	r3, [r4, #64]	@ 0x40
 8002f00:	bb0b      	cbnz	r3, 8002f46 <HAL_RCCEx_PeriphCLKConfig+0x2fa>
 8002f02:	4a03      	ldr	r2, [pc, #12]	@ (8002f10 <HAL_RCCEx_PeriphCLKConfig+0x2c4>)
 8002f04:	f8d2 3088 	ldr.w	r3, [r2, #136]	@ 0x88
 8002f08:	f8d2 0088 	ldr.w	r0, [r2, #136]	@ 0x88
 8002f0c:	e004      	b.n	8002f18 <HAL_RCCEx_PeriphCLKConfig+0x2cc>
 8002f0e:	bf00      	nop
 8002f10:	40023800 	.word	0x40023800
 8002f14:	40007000 	.word	0x40007000
 8002f18:	f403 3340 	and.w	r3, r3, #196608	@ 0x30000
 8002f1c:	f000 40e0 	and.w	r0, r0, #1879048192	@ 0x70000000
 8002f20:	4303      	orrs	r3, r0
 8002f22:	6960      	ldr	r0, [r4, #20]
 8002f24:	ea43 1380 	orr.w	r3, r3, r0, lsl #6
 8002f28:	69a0      	ldr	r0, [r4, #24]
 8002f2a:	ea43 6300 	orr.w	r3, r3, r0, lsl #24
 8002f2e:	f8c2 3088 	str.w	r3, [r2, #136]	@ 0x88
 8002f32:	f8d2 308c 	ldr.w	r3, [r2, #140]	@ 0x8c
 8002f36:	6aa0      	ldr	r0, [r4, #40]	@ 0x28
 8002f38:	f423 53f8 	bic.w	r3, r3, #7936	@ 0x1f00
 8002f3c:	3801      	subs	r0, #1
 8002f3e:	ea43 2300 	orr.w	r3, r3, r0, lsl #8
 8002f42:	f8c2 308c 	str.w	r3, [r2, #140]	@ 0x8c
 8002f46:	0288      	lsls	r0, r1, #10
 8002f48:	d515      	bpl.n	8002f76 <HAL_RCCEx_PeriphCLKConfig+0x32a>
 8002f4a:	6fe3      	ldr	r3, [r4, #124]	@ 0x7c
 8002f4c:	f1b3 6f00 	cmp.w	r3, #134217728	@ 0x8000000
 8002f50:	d111      	bne.n	8002f76 <HAL_RCCEx_PeriphCLKConfig+0x32a>
 8002f52:	4a82      	ldr	r2, [pc, #520]	@ (800315c <HAL_RCCEx_PeriphCLKConfig+0x510>)
 8002f54:	f8d2 3088 	ldr.w	r3, [r2, #136]	@ 0x88
 8002f58:	f8d2 0088 	ldr.w	r0, [r2, #136]	@ 0x88
 8002f5c:	f003 6370 	and.w	r3, r3, #251658240	@ 0xf000000
 8002f60:	f000 40e0 	and.w	r0, r0, #1879048192	@ 0x70000000
 8002f64:	4303      	orrs	r3, r0
 8002f66:	6960      	ldr	r0, [r4, #20]
 8002f68:	ea43 1380 	orr.w	r3, r3, r0, lsl #6
 8002f6c:	6a20      	ldr	r0, [r4, #32]
 8002f6e:	ea43 4300 	orr.w	r3, r3, r0, lsl #16
 8002f72:	f8c2 3088 	str.w	r3, [r2, #136]	@ 0x88
 8002f76:	070a      	lsls	r2, r1, #28
 8002f78:	d519      	bpl.n	8002fae <HAL_RCCEx_PeriphCLKConfig+0x362>
 8002f7a:	4a78      	ldr	r2, [pc, #480]	@ (800315c <HAL_RCCEx_PeriphCLKConfig+0x510>)
 8002f7c:	f8d2 1088 	ldr.w	r1, [r2, #136]	@ 0x88
 8002f80:	f8d2 3088 	ldr.w	r3, [r2, #136]	@ 0x88
 8002f84:	f001 6170 	and.w	r1, r1, #251658240	@ 0xf000000
 8002f88:	f403 3340 	and.w	r3, r3, #196608	@ 0x30000
 8002f8c:	430b      	orrs	r3, r1
 8002f8e:	6961      	ldr	r1, [r4, #20]
 8002f90:	ea43 1381 	orr.w	r3, r3, r1, lsl #6
 8002f94:	69e1      	ldr	r1, [r4, #28]
 8002f96:	ea43 7301 	orr.w	r3, r3, r1, lsl #28
 8002f9a:	f8c2 3088 	str.w	r3, [r2, #136]	@ 0x88
 8002f9e:	f8d2 308c 	ldr.w	r3, [r2, #140]	@ 0x8c
 8002fa2:	6ae1      	ldr	r1, [r4, #44]	@ 0x2c
 8002fa4:	f423 3340 	bic.w	r3, r3, #196608	@ 0x30000
 8002fa8:	430b      	orrs	r3, r1
 8002faa:	f8c2 308c 	str.w	r3, [r2, #140]	@ 0x8c
 8002fae:	4c6b      	ldr	r4, [pc, #428]	@ (800315c <HAL_RCCEx_PeriphCLKConfig+0x510>)
 8002fb0:	6823      	ldr	r3, [r4, #0]
 8002fb2:	f043 5380 	orr.w	r3, r3, #268435456	@ 0x10000000
 8002fb6:	6023      	str	r3, [r4, #0]
 8002fb8:	f7fe fff6 	bl	8001fa8 <HAL_GetTick>
 8002fbc:	4605      	mov	r5, r0
 8002fbe:	6823      	ldr	r3, [r4, #0]
 8002fc0:	009b      	lsls	r3, r3, #2
 8002fc2:	f140 80c3 	bpl.w	800314c <HAL_RCCEx_PeriphCLKConfig+0x500>
 8002fc6:	2000      	movs	r0, #0
 8002fc8:	e009      	b.n	8002fde <HAL_RCCEx_PeriphCLKConfig+0x392>
 8002fca:	2601      	movs	r6, #1
 8002fcc:	e67a      	b.n	8002cc4 <HAL_RCCEx_PeriphCLKConfig+0x78>
 8002fce:	f7fe ffeb 	bl	8001fa8 <HAL_GetTick>
 8002fd2:	eba0 0008 	sub.w	r0, r0, r8
 8002fd6:	2864      	cmp	r0, #100	@ 0x64
 8002fd8:	f67f ae8c 	bls.w	8002cf4 <HAL_RCCEx_PeriphCLKConfig+0xa8>
 8002fdc:	2003      	movs	r0, #3
 8002fde:	b003      	add	sp, #12
 8002fe0:	e8bd 83f0 	ldmia.w	sp!, {r4, r5, r6, r7, r8, r9, pc}
 8002fe4:	f402 7240 	and.w	r2, r2, #768	@ 0x300
 8002fe8:	4293      	cmp	r3, r2
 8002fea:	f43f ae8e 	beq.w	8002d0a <HAL_RCCEx_PeriphCLKConfig+0xbe>
 8002fee:	6f3b      	ldr	r3, [r7, #112]	@ 0x70
 8002ff0:	6f3a      	ldr	r2, [r7, #112]	@ 0x70
 8002ff2:	f423 7340 	bic.w	r3, r3, #768	@ 0x300
 8002ff6:	f442 3280 	orr.w	r2, r2, #65536	@ 0x10000
 8002ffa:	673a      	str	r2, [r7, #112]	@ 0x70
 8002ffc:	6f3a      	ldr	r2, [r7, #112]	@ 0x70
 8002ffe:	f422 3280 	bic.w	r2, r2, #65536	@ 0x10000
 8003002:	673a      	str	r2, [r7, #112]	@ 0x70
 8003004:	673b      	str	r3, [r7, #112]	@ 0x70
 8003006:	6f3b      	ldr	r3, [r7, #112]	@ 0x70
 8003008:	07db      	lsls	r3, r3, #31
 800300a:	f57f ae7e 	bpl.w	8002d0a <HAL_RCCEx_PeriphCLKConfig+0xbe>
 800300e:	f7fe ffcb 	bl	8001fa8 <HAL_GetTick>
 8003012:	f241 3988 	movw	r9, #5000	@ 0x1388
 8003016:	4680      	mov	r8, r0
 8003018:	6f3b      	ldr	r3, [r7, #112]	@ 0x70
 800301a:	0798      	lsls	r0, r3, #30
 800301c:	f53f ae75 	bmi.w	8002d0a <HAL_RCCEx_PeriphCLKConfig+0xbe>
 8003020:	f7fe ffc2 	bl	8001fa8 <HAL_GetTick>
 8003024:	eba0 0008 	sub.w	r0, r0, r8
 8003028:	4548      	cmp	r0, r9
 800302a:	d9f5      	bls.n	8003018 <HAL_RCCEx_PeriphCLKConfig+0x3cc>
 800302c:	e7d6      	b.n	8002fdc <HAL_RCCEx_PeriphCLKConfig+0x390>
 800302e:	6891      	ldr	r1, [r2, #8]
 8003030:	f421 11f8 	bic.w	r1, r1, #2031616	@ 0x1f0000
 8003034:	e679      	b.n	8002d2a <HAL_RCCEx_PeriphCLKConfig+0xde>
 8003036:	4e49      	ldr	r6, [pc, #292]	@ (800315c <HAL_RCCEx_PeriphCLKConfig+0x510>)
 8003038:	6833      	ldr	r3, [r6, #0]
 800303a:	f023 6380 	bic.w	r3, r3, #67108864	@ 0x4000000
 800303e:	6033      	str	r3, [r6, #0]
 8003040:	f7fe ffb2 	bl	8001fa8 <HAL_GetTick>
 8003044:	4607      	mov	r7, r0
 8003046:	6833      	ldr	r3, [r6, #0]
 8003048:	011b      	lsls	r3, r3, #4
 800304a:	d472      	bmi.n	8003132 <HAL_RCCEx_PeriphCLKConfig+0x4e6>
 800304c:	6822      	ldr	r2, [r4, #0]
 800304e:	07d7      	lsls	r7, r2, #31
 8003050:	d512      	bpl.n	8003078 <HAL_RCCEx_PeriphCLKConfig+0x42c>
 8003052:	6b63      	ldr	r3, [r4, #52]	@ 0x34
 8003054:	b983      	cbnz	r3, 8003078 <HAL_RCCEx_PeriphCLKConfig+0x42c>
 8003056:	f8d6 3084 	ldr.w	r3, [r6, #132]	@ 0x84
 800305a:	f8d6 1084 	ldr.w	r1, [r6, #132]	@ 0x84
 800305e:	f403 3340 	and.w	r3, r3, #196608	@ 0x30000
 8003062:	f001 6170 	and.w	r1, r1, #251658240	@ 0xf000000
 8003066:	430b      	orrs	r3, r1
 8003068:	6861      	ldr	r1, [r4, #4]
 800306a:	ea43 1381 	orr.w	r3, r3, r1, lsl #6
 800306e:	68a1      	ldr	r1, [r4, #8]
 8003070:	ea43 7301 	orr.w	r3, r3, r1, lsl #28
 8003074:	f8c6 3084 	str.w	r3, [r6, #132]	@ 0x84
 8003078:	0316      	lsls	r6, r2, #12
 800307a:	d503      	bpl.n	8003084 <HAL_RCCEx_PeriphCLKConfig+0x438>
 800307c:	6be3      	ldr	r3, [r4, #60]	@ 0x3c
 800307e:	f5b3 1f80 	cmp.w	r3, #1048576	@ 0x100000
 8003082:	d005      	beq.n	8003090 <HAL_RCCEx_PeriphCLKConfig+0x444>
 8003084:	02d0      	lsls	r0, r2, #11
 8003086:	d51e      	bpl.n	80030c6 <HAL_RCCEx_PeriphCLKConfig+0x47a>
 8003088:	6c23      	ldr	r3, [r4, #64]	@ 0x40
 800308a:	f5b3 0f80 	cmp.w	r3, #4194304	@ 0x400000
 800308e:	d11a      	bne.n	80030c6 <HAL_RCCEx_PeriphCLKConfig+0x47a>
 8003090:	4932      	ldr	r1, [pc, #200]	@ (800315c <HAL_RCCEx_PeriphCLKConfig+0x510>)
 8003092:	f8d1 3084 	ldr.w	r3, [r1, #132]	@ 0x84
 8003096:	f8d1 0084 	ldr.w	r0, [r1, #132]	@ 0x84
 800309a:	f403 3340 	and.w	r3, r3, #196608	@ 0x30000
 800309e:	f000 40e0 	and.w	r0, r0, #1879048192	@ 0x70000000
 80030a2:	4303      	orrs	r3, r0
 80030a4:	6860      	ldr	r0, [r4, #4]
 80030a6:	ea43 1380 	orr.w	r3, r3, r0, lsl #6
 80030aa:	68e0      	ldr	r0, [r4, #12]
 80030ac:	ea43 6300 	orr.w	r3, r3, r0, lsl #24
 80030b0:	f8c1 3084 	str.w	r3, [r1, #132]	@ 0x84
 80030b4:	f8d1 008c 	ldr.w	r0, [r1, #140]	@ 0x8c
 80030b8:	6a63      	ldr	r3, [r4, #36]	@ 0x24
 80030ba:	f020 001f 	bic.w	r0, r0, #31
 80030be:	3b01      	subs	r3, #1
 80030c0:	4303      	orrs	r3, r0
 80030c2:	f8c1 308c 	str.w	r3, [r1, #140]	@ 0x8c
 80030c6:	01d1      	lsls	r1, r2, #7
 80030c8:	d511      	bpl.n	80030ee <HAL_RCCEx_PeriphCLKConfig+0x4a2>
 80030ca:	4924      	ldr	r1, [pc, #144]	@ (800315c <HAL_RCCEx_PeriphCLKConfig+0x510>)
 80030cc:	f8d1 3084 	ldr.w	r3, [r1, #132]	@ 0x84
 80030d0:	f8d1 0084 	ldr.w	r0, [r1, #132]	@ 0x84
 80030d4:	f003 6370 	and.w	r3, r3, #251658240	@ 0xf000000
 80030d8:	f000 40e0 	and.w	r0, r0, #1879048192	@ 0x70000000
 80030dc:	4303      	orrs	r3, r0
 80030de:	6860      	ldr	r0, [r4, #4]
 80030e0:	ea43 1380 	orr.w	r3, r3, r0, lsl #6
 80030e4:	6920      	ldr	r0, [r4, #16]
 80030e6:	ea43 4300 	orr.w	r3, r3, r0, lsl #16
 80030ea:	f8c1 3084 	str.w	r3, [r1, #132]	@ 0x84
 80030ee:	0192      	lsls	r2, r2, #6
 80030f0:	d50d      	bpl.n	800310e <HAL_RCCEx_PeriphCLKConfig+0x4c2>
 80030f2:	6923      	ldr	r3, [r4, #16]
 80030f4:	6862      	ldr	r2, [r4, #4]
 80030f6:	041b      	lsls	r3, r3, #16
 80030f8:	ea43 1382 	orr.w	r3, r3, r2, lsl #6
 80030fc:	68e2      	ldr	r2, [r4, #12]
 80030fe:	ea43 6302 	orr.w	r3, r3, r2, lsl #24
 8003102:	68a2      	ldr	r2, [r4, #8]
 8003104:	ea43 7302 	orr.w	r3, r3, r2, lsl #28
 8003108:	4a14      	ldr	r2, [pc, #80]	@ (800315c <HAL_RCCEx_PeriphCLKConfig+0x510>)
 800310a:	f8c2 3084 	str.w	r3, [r2, #132]	@ 0x84
 800310e:	4e13      	ldr	r6, [pc, #76]	@ (800315c <HAL_RCCEx_PeriphCLKConfig+0x510>)
 8003110:	6833      	ldr	r3, [r6, #0]
 8003112:	f043 6380 	orr.w	r3, r3, #67108864	@ 0x4000000
 8003116:	6033      	str	r3, [r6, #0]
 8003118:	f7fe ff46 	bl	8001fa8 <HAL_GetTick>
 800311c:	4607      	mov	r7, r0
 800311e:	6833      	ldr	r3, [r6, #0]
 8003120:	011b      	lsls	r3, r3, #4
 8003122:	f53f aed7 	bmi.w	8002ed4 <HAL_RCCEx_PeriphCLKConfig+0x288>
 8003126:	f7fe ff3f 	bl	8001fa8 <HAL_GetTick>
 800312a:	1bc0      	subs	r0, r0, r7
 800312c:	2864      	cmp	r0, #100	@ 0x64
 800312e:	d9f6      	bls.n	800311e <HAL_RCCEx_PeriphCLKConfig+0x4d2>
 8003130:	e754      	b.n	8002fdc <HAL_RCCEx_PeriphCLKConfig+0x390>
 8003132:	f7fe ff39 	bl	8001fa8 <HAL_GetTick>
 8003136:	1bc0      	subs	r0, r0, r7
 8003138:	2864      	cmp	r0, #100	@ 0x64
 800313a:	d984      	bls.n	8003046 <HAL_RCCEx_PeriphCLKConfig+0x3fa>
 800313c:	e74e      	b.n	8002fdc <HAL_RCCEx_PeriphCLKConfig+0x390>
 800313e:	f7fe ff33 	bl	8001fa8 <HAL_GetTick>
 8003142:	1b80      	subs	r0, r0, r6
 8003144:	2864      	cmp	r0, #100	@ 0x64
 8003146:	f67f aecf 	bls.w	8002ee8 <HAL_RCCEx_PeriphCLKConfig+0x29c>
 800314a:	e747      	b.n	8002fdc <HAL_RCCEx_PeriphCLKConfig+0x390>
 800314c:	f7fe ff2c 	bl	8001fa8 <HAL_GetTick>
 8003150:	1b40      	subs	r0, r0, r5
 8003152:	2864      	cmp	r0, #100	@ 0x64
 8003154:	f67f af33 	bls.w	8002fbe <HAL_RCCEx_PeriphCLKConfig+0x372>
 8003158:	e740      	b.n	8002fdc <HAL_RCCEx_PeriphCLKConfig+0x390>
 800315a:	bf00      	nop
 800315c:	40023800 	.word	0x40023800

08003160 <UART_EndRxTransfer>:
 8003160:	6802      	ldr	r2, [r0, #0]
 8003162:	e852 3f00 	ldrex	r3, [r2]
 8003166:	f423 7390 	bic.w	r3, r3, #288	@ 0x120
 800316a:	e842 3100 	strex	r1, r3, [r2]
 800316e:	6802      	ldr	r2, [r0, #0]
 8003170:	2900      	cmp	r1, #0
 8003172:	d1f5      	bne.n	8003160 <UART_EndRxTransfer>
 8003174:	f102 0308 	add.w	r3, r2, #8
 8003178:	e853 3f00 	ldrex	r3, [r3]
 800317c:	f023 0301 	bic.w	r3, r3, #1
 8003180:	f102 0c08 	add.w	ip, r2, #8
 8003184:	e84c 3100 	strex	r1, r3, [ip]
 8003188:	2900      	cmp	r1, #0
 800318a:	d1f3      	bne.n	8003174 <UART_EndRxTransfer+0x14>
 800318c:	6e03      	ldr	r3, [r0, #96]	@ 0x60
 800318e:	2b01      	cmp	r3, #1
 8003190:	d107      	bne.n	80031a2 <UART_EndRxTransfer+0x42>
 8003192:	e852 3f00 	ldrex	r3, [r2]
 8003196:	f023 0310 	bic.w	r3, r3, #16
 800319a:	e842 3100 	strex	r1, r3, [r2]
 800319e:	2900      	cmp	r1, #0
 80031a0:	d1f7      	bne.n	8003192 <UART_EndRxTransfer+0x32>
 80031a2:	2320      	movs	r3, #32
 80031a4:	f8c0 3080 	str.w	r3, [r0, #128]	@ 0x80
 80031a8:	2300      	movs	r3, #0
 80031aa:	6603      	str	r3, [r0, #96]	@ 0x60
 80031ac:	6683      	str	r3, [r0, #104]	@ 0x68
 80031ae:	4770      	bx	lr

080031b0 <UART_SetConfig>:
 80031b0:	b538      	push	{r3, r4, r5, lr}
 80031b2:	4604      	mov	r4, r0
 80031b4:	69c0      	ldr	r0, [r0, #28]
 80031b6:	6921      	ldr	r1, [r4, #16]
 80031b8:	68a2      	ldr	r2, [r4, #8]
 80031ba:	6823      	ldr	r3, [r4, #0]
 80031bc:	430a      	orrs	r2, r1
 80031be:	6961      	ldr	r1, [r4, #20]
 80031c0:	681d      	ldr	r5, [r3, #0]
 80031c2:	430a      	orrs	r2, r1
 80031c4:	497d      	ldr	r1, [pc, #500]	@ (80033bc <UART_SetConfig+0x20c>)
 80031c6:	4302      	orrs	r2, r0
 80031c8:	4029      	ands	r1, r5
 80031ca:	6a25      	ldr	r5, [r4, #32]
 80031cc:	430a      	orrs	r2, r1
 80031ce:	68e1      	ldr	r1, [r4, #12]
 80031d0:	601a      	str	r2, [r3, #0]
 80031d2:	685a      	ldr	r2, [r3, #4]
 80031d4:	f422 5240 	bic.w	r2, r2, #12288	@ 0x3000
 80031d8:	430a      	orrs	r2, r1
 80031da:	605a      	str	r2, [r3, #4]
 80031dc:	69a2      	ldr	r2, [r4, #24]
 80031de:	6899      	ldr	r1, [r3, #8]
 80031e0:	432a      	orrs	r2, r5
 80031e2:	f421 6130 	bic.w	r1, r1, #2816	@ 0xb00
 80031e6:	430a      	orrs	r2, r1
 80031e8:	609a      	str	r2, [r3, #8]
 80031ea:	4a75      	ldr	r2, [pc, #468]	@ (80033c0 <UART_SetConfig+0x210>)
 80031ec:	4293      	cmp	r3, r2
 80031ee:	d113      	bne.n	8003218 <UART_SetConfig+0x68>
 80031f0:	4b74      	ldr	r3, [pc, #464]	@ (80033c4 <UART_SetConfig+0x214>)
 80031f2:	f8d3 3090 	ldr.w	r3, [r3, #144]	@ 0x90
 80031f6:	f003 0303 	and.w	r3, r3, #3
 80031fa:	2b02      	cmp	r3, #2
 80031fc:	f000 80a8 	beq.w	8003350 <UART_SetConfig+0x1a0>
 8003200:	2b03      	cmp	r3, #3
 8003202:	d021      	beq.n	8003248 <UART_SetConfig+0x98>
 8003204:	2b01      	cmp	r3, #1
 8003206:	f040 80bd 	bne.w	8003384 <UART_SetConfig+0x1d4>
 800320a:	f5b0 4f00 	cmp.w	r0, #32768	@ 0x8000
 800320e:	f040 809c 	bne.w	800334a <UART_SetConfig+0x19a>
 8003212:	f7ff fc2f 	bl	8002a74 <HAL_RCC_GetSysClockFreq>
 8003216:	e092      	b.n	800333e <UART_SetConfig+0x18e>
 8003218:	4a6b      	ldr	r2, [pc, #428]	@ (80033c8 <UART_SetConfig+0x218>)
 800321a:	4293      	cmp	r3, r2
 800321c:	d11b      	bne.n	8003256 <UART_SetConfig+0xa6>
 800321e:	4b69      	ldr	r3, [pc, #420]	@ (80033c4 <UART_SetConfig+0x214>)
 8003220:	f8d3 3090 	ldr.w	r3, [r3, #144]	@ 0x90
 8003224:	f003 030c 	and.w	r3, r3, #12
 8003228:	2b08      	cmp	r3, #8
 800322a:	f000 8091 	beq.w	8003350 <UART_SetConfig+0x1a0>
 800322e:	d809      	bhi.n	8003244 <UART_SetConfig+0x94>
 8003230:	2b00      	cmp	r3, #0
 8003232:	f000 80ad 	beq.w	8003390 <UART_SetConfig+0x1e0>
 8003236:	2b04      	cmp	r3, #4
 8003238:	d0e7      	beq.n	800320a <UART_SetConfig+0x5a>
 800323a:	2001      	movs	r0, #1
 800323c:	2300      	movs	r3, #0
 800323e:	e9c4 331a 	strd	r3, r3, [r4, #104]	@ 0x68
 8003242:	bd38      	pop	{r3, r4, r5, pc}
 8003244:	2b0c      	cmp	r3, #12
 8003246:	d1f8      	bne.n	800323a <UART_SetConfig+0x8a>
 8003248:	f5b0 4f00 	cmp.w	r0, #32768	@ 0x8000
 800324c:	f000 8084 	beq.w	8003358 <UART_SetConfig+0x1a8>
 8003250:	f44f 4000 	mov.w	r0, #32768	@ 0x8000
 8003254:	e0a3      	b.n	800339e <UART_SetConfig+0x1ee>
 8003256:	4a5d      	ldr	r2, [pc, #372]	@ (80033cc <UART_SetConfig+0x21c>)
 8003258:	4293      	cmp	r3, r2
 800325a:	d10e      	bne.n	800327a <UART_SetConfig+0xca>
 800325c:	4b59      	ldr	r3, [pc, #356]	@ (80033c4 <UART_SetConfig+0x214>)
 800325e:	f8d3 3090 	ldr.w	r3, [r3, #144]	@ 0x90
 8003262:	f003 0330 	and.w	r3, r3, #48	@ 0x30
 8003266:	2b20      	cmp	r3, #32
 8003268:	d072      	beq.n	8003350 <UART_SetConfig+0x1a0>
 800326a:	d804      	bhi.n	8003276 <UART_SetConfig+0xc6>
 800326c:	2b00      	cmp	r3, #0
 800326e:	f000 808f 	beq.w	8003390 <UART_SetConfig+0x1e0>
 8003272:	2b10      	cmp	r3, #16
 8003274:	e7e0      	b.n	8003238 <UART_SetConfig+0x88>
 8003276:	2b30      	cmp	r3, #48	@ 0x30
 8003278:	e7e5      	b.n	8003246 <UART_SetConfig+0x96>
 800327a:	4a55      	ldr	r2, [pc, #340]	@ (80033d0 <UART_SetConfig+0x220>)
 800327c:	4293      	cmp	r3, r2
 800327e:	d10d      	bne.n	800329c <UART_SetConfig+0xec>
 8003280:	4b50      	ldr	r3, [pc, #320]	@ (80033c4 <UART_SetConfig+0x214>)
 8003282:	f8d3 3090 	ldr.w	r3, [r3, #144]	@ 0x90
 8003286:	f003 03c0 	and.w	r3, r3, #192	@ 0xc0
 800328a:	2b80      	cmp	r3, #128	@ 0x80
 800328c:	d060      	beq.n	8003350 <UART_SetConfig+0x1a0>
 800328e:	d803      	bhi.n	8003298 <UART_SetConfig+0xe8>
 8003290:	2b00      	cmp	r3, #0
 8003292:	d07d      	beq.n	8003390 <UART_SetConfig+0x1e0>
 8003294:	2b40      	cmp	r3, #64	@ 0x40
 8003296:	e7cf      	b.n	8003238 <UART_SetConfig+0x88>
 8003298:	2bc0      	cmp	r3, #192	@ 0xc0
 800329a:	e7d4      	b.n	8003246 <UART_SetConfig+0x96>
 800329c:	4a4d      	ldr	r2, [pc, #308]	@ (80033d4 <UART_SetConfig+0x224>)
 800329e:	4293      	cmp	r3, r2
 80032a0:	d110      	bne.n	80032c4 <UART_SetConfig+0x114>
 80032a2:	4b48      	ldr	r3, [pc, #288]	@ (80033c4 <UART_SetConfig+0x214>)
 80032a4:	f8d3 3090 	ldr.w	r3, [r3, #144]	@ 0x90
 80032a8:	f403 7340 	and.w	r3, r3, #768	@ 0x300
 80032ac:	f5b3 7f00 	cmp.w	r3, #512	@ 0x200
 80032b0:	d04e      	beq.n	8003350 <UART_SetConfig+0x1a0>
 80032b2:	d804      	bhi.n	80032be <UART_SetConfig+0x10e>
 80032b4:	2b00      	cmp	r3, #0
 80032b6:	d06b      	beq.n	8003390 <UART_SetConfig+0x1e0>
 80032b8:	f5b3 7f80 	cmp.w	r3, #256	@ 0x100
 80032bc:	e7bc      	b.n	8003238 <UART_SetConfig+0x88>
 80032be:	f5b3 7f40 	cmp.w	r3, #768	@ 0x300
 80032c2:	e7c0      	b.n	8003246 <UART_SetConfig+0x96>
 80032c4:	4a44      	ldr	r2, [pc, #272]	@ (80033d8 <UART_SetConfig+0x228>)
 80032c6:	4293      	cmp	r3, r2
 80032c8:	d110      	bne.n	80032ec <UART_SetConfig+0x13c>
 80032ca:	4b3e      	ldr	r3, [pc, #248]	@ (80033c4 <UART_SetConfig+0x214>)
 80032cc:	f8d3 3090 	ldr.w	r3, [r3, #144]	@ 0x90
 80032d0:	f403 6340 	and.w	r3, r3, #3072	@ 0xc00
 80032d4:	f5b3 6f00 	cmp.w	r3, #2048	@ 0x800
 80032d8:	d03a      	beq.n	8003350 <UART_SetConfig+0x1a0>
 80032da:	d804      	bhi.n	80032e6 <UART_SetConfig+0x136>
 80032dc:	2b00      	cmp	r3, #0
 80032de:	d051      	beq.n	8003384 <UART_SetConfig+0x1d4>
 80032e0:	f5b3 6f80 	cmp.w	r3, #1024	@ 0x400
 80032e4:	e7a8      	b.n	8003238 <UART_SetConfig+0x88>
 80032e6:	f5b3 6f40 	cmp.w	r3, #3072	@ 0xc00
 80032ea:	e7ac      	b.n	8003246 <UART_SetConfig+0x96>
 80032ec:	4a3b      	ldr	r2, [pc, #236]	@ (80033dc <UART_SetConfig+0x22c>)
 80032ee:	4293      	cmp	r3, r2
 80032f0:	d110      	bne.n	8003314 <UART_SetConfig+0x164>
 80032f2:	4b34      	ldr	r3, [pc, #208]	@ (80033c4 <UART_SetConfig+0x214>)
 80032f4:	f8d3 3090 	ldr.w	r3, [r3, #144]	@ 0x90
 80032f8:	f403 5340 	and.w	r3, r3, #12288	@ 0x3000
 80032fc:	f5b3 5f00 	cmp.w	r3, #8192	@ 0x2000
 8003300:	d026      	beq.n	8003350 <UART_SetConfig+0x1a0>
 8003302:	d804      	bhi.n	800330e <UART_SetConfig+0x15e>
 8003304:	2b00      	cmp	r3, #0
 8003306:	d043      	beq.n	8003390 <UART_SetConfig+0x1e0>
 8003308:	f5b3 5f80 	cmp.w	r3, #4096	@ 0x1000
 800330c:	e794      	b.n	8003238 <UART_SetConfig+0x88>
 800330e:	f5b3 5f40 	cmp.w	r3, #12288	@ 0x3000
 8003312:	e798      	b.n	8003246 <UART_SetConfig+0x96>
 8003314:	4a32      	ldr	r2, [pc, #200]	@ (80033e0 <UART_SetConfig+0x230>)
 8003316:	4293      	cmp	r3, r2
 8003318:	d18f      	bne.n	800323a <UART_SetConfig+0x8a>
 800331a:	4b2a      	ldr	r3, [pc, #168]	@ (80033c4 <UART_SetConfig+0x214>)
 800331c:	f8d3 3090 	ldr.w	r3, [r3, #144]	@ 0x90
 8003320:	f403 4340 	and.w	r3, r3, #49152	@ 0xc000
 8003324:	f5b3 4f00 	cmp.w	r3, #32768	@ 0x8000
 8003328:	d012      	beq.n	8003350 <UART_SetConfig+0x1a0>
 800332a:	d803      	bhi.n	8003334 <UART_SetConfig+0x184>
 800332c:	b383      	cbz	r3, 8003390 <UART_SetConfig+0x1e0>
 800332e:	f5b3 4f80 	cmp.w	r3, #16384	@ 0x4000
 8003332:	e781      	b.n	8003238 <UART_SetConfig+0x88>
 8003334:	f5b3 4f40 	cmp.w	r3, #49152	@ 0xc000
 8003338:	e785      	b.n	8003246 <UART_SetConfig+0x96>
 800333a:	f7ff fc67 	bl	8002c0c <HAL_RCC_GetPCLK1Freq>
 800333e:	b958      	cbnz	r0, 8003358 <UART_SetConfig+0x1a8>
 8003340:	2000      	movs	r0, #0
 8003342:	e77b      	b.n	800323c <UART_SetConfig+0x8c>
 8003344:	f7ff fc72 	bl	8002c2c <HAL_RCC_GetPCLK2Freq>
 8003348:	e027      	b.n	800339a <UART_SetConfig+0x1ea>
 800334a:	f7ff fb93 	bl	8002a74 <HAL_RCC_GetSysClockFreq>
 800334e:	e024      	b.n	800339a <UART_SetConfig+0x1ea>
 8003350:	f5b0 4f00 	cmp.w	r0, #32768	@ 0x8000
 8003354:	4823      	ldr	r0, [pc, #140]	@ (80033e4 <UART_SetConfig+0x234>)
 8003356:	d122      	bne.n	800339e <UART_SetConfig+0x1ee>
 8003358:	6862      	ldr	r2, [r4, #4]
 800335a:	0853      	lsrs	r3, r2, #1
 800335c:	eb03 0340 	add.w	r3, r3, r0, lsl #1
 8003360:	fbb3 f3f2 	udiv	r3, r3, r2
 8003364:	f64f 72ef 	movw	r2, #65519	@ 0xffef
 8003368:	f1a3 0110 	sub.w	r1, r3, #16
 800336c:	4291      	cmp	r1, r2
 800336e:	f63f af64 	bhi.w	800323a <UART_SetConfig+0x8a>
 8003372:	f023 020f 	bic.w	r2, r3, #15
 8003376:	f3c3 0342 	ubfx	r3, r3, #1, #3
 800337a:	6821      	ldr	r1, [r4, #0]
 800337c:	b292      	uxth	r2, r2
 800337e:	4313      	orrs	r3, r2
 8003380:	60cb      	str	r3, [r1, #12]
 8003382:	e7dd      	b.n	8003340 <UART_SetConfig+0x190>
 8003384:	f5b0 4f00 	cmp.w	r0, #32768	@ 0x8000
 8003388:	d1dc      	bne.n	8003344 <UART_SetConfig+0x194>
 800338a:	f7ff fc4f 	bl	8002c2c <HAL_RCC_GetPCLK2Freq>
 800338e:	e7d6      	b.n	800333e <UART_SetConfig+0x18e>
 8003390:	f5b0 4f00 	cmp.w	r0, #32768	@ 0x8000
 8003394:	d0d1      	beq.n	800333a <UART_SetConfig+0x18a>
 8003396:	f7ff fc39 	bl	8002c0c <HAL_RCC_GetPCLK1Freq>
 800339a:	2800      	cmp	r0, #0
 800339c:	d0d0      	beq.n	8003340 <UART_SetConfig+0x190>
 800339e:	6862      	ldr	r2, [r4, #4]
 80033a0:	eb00 0352 	add.w	r3, r0, r2, lsr #1
 80033a4:	fbb3 f3f2 	udiv	r3, r3, r2
 80033a8:	f64f 72ef 	movw	r2, #65519	@ 0xffef
 80033ac:	f1a3 0110 	sub.w	r1, r3, #16
 80033b0:	4291      	cmp	r1, r2
 80033b2:	f63f af42 	bhi.w	800323a <UART_SetConfig+0x8a>
 80033b6:	6822      	ldr	r2, [r4, #0]
 80033b8:	60d3      	str	r3, [r2, #12]
 80033ba:	e7c1      	b.n	8003340 <UART_SetConfig+0x190>
 80033bc:	efff69f3 	.word	0xefff69f3
 80033c0:	40011000 	.word	0x40011000
 80033c4:	40023800 	.word	0x40023800
 80033c8:	40004400 	.word	0x40004400
 80033cc:	40004800 	.word	0x40004800
 80033d0:	40004c00 	.word	0x40004c00
 80033d4:	40005000 	.word	0x40005000
 80033d8:	40011400 	.word	0x40011400
 80033dc:	40007800 	.word	0x40007800
 80033e0:	40007c00 	.word	0x40007c00
 80033e4:	00f42400 	.word	0x00f42400

080033e8 <UART_AdvFeatureConfig>:
 80033e8:	6a43      	ldr	r3, [r0, #36]	@ 0x24
 80033ea:	071a      	lsls	r2, r3, #28
 80033ec:	b510      	push	{r4, lr}
 80033ee:	d506      	bpl.n	80033fe <UART_AdvFeatureConfig+0x16>
 80033f0:	6801      	ldr	r1, [r0, #0]
 80033f2:	6b44      	ldr	r4, [r0, #52]	@ 0x34
 80033f4:	684a      	ldr	r2, [r1, #4]
 80033f6:	f422 4200 	bic.w	r2, r2, #32768	@ 0x8000
 80033fa:	4322      	orrs	r2, r4
 80033fc:	604a      	str	r2, [r1, #4]
 80033fe:	07dc      	lsls	r4, r3, #31
 8003400:	d506      	bpl.n	8003410 <UART_AdvFeatureConfig+0x28>
 8003402:	6801      	ldr	r1, [r0, #0]
 8003404:	6a84      	ldr	r4, [r0, #40]	@ 0x28
 8003406:	684a      	ldr	r2, [r1, #4]
 8003408:	f422 3200 	bic.w	r2, r2, #131072	@ 0x20000
 800340c:	4322      	orrs	r2, r4
 800340e:	604a      	str	r2, [r1, #4]
 8003410:	0799      	lsls	r1, r3, #30
 8003412:	d506      	bpl.n	8003422 <UART_AdvFeatureConfig+0x3a>
 8003414:	6801      	ldr	r1, [r0, #0]
 8003416:	6ac4      	ldr	r4, [r0, #44]	@ 0x2c
 8003418:	684a      	ldr	r2, [r1, #4]
 800341a:	f422 3280 	bic.w	r2, r2, #65536	@ 0x10000
 800341e:	4322      	orrs	r2, r4
 8003420:	604a      	str	r2, [r1, #4]
 8003422:	075a      	lsls	r2, r3, #29
 8003424:	d506      	bpl.n	8003434 <UART_AdvFeatureConfig+0x4c>
 8003426:	6801      	ldr	r1, [r0, #0]
 8003428:	6b04      	ldr	r4, [r0, #48]	@ 0x30
 800342a:	684a      	ldr	r2, [r1, #4]
 800342c:	f422 2280 	bic.w	r2, r2, #262144	@ 0x40000
 8003430:	4322      	orrs	r2, r4
 8003432:	604a      	str	r2, [r1, #4]
 8003434:	06dc      	lsls	r4, r3, #27
 8003436:	d506      	bpl.n	8003446 <UART_AdvFeatureConfig+0x5e>
 8003438:	6801      	ldr	r1, [r0, #0]
 800343a:	6b84      	ldr	r4, [r0, #56]	@ 0x38
 800343c:	688a      	ldr	r2, [r1, #8]
 800343e:	f422 5280 	bic.w	r2, r2, #4096	@ 0x1000
 8003442:	4322      	orrs	r2, r4
 8003444:	608a      	str	r2, [r1, #8]
 8003446:	0699      	lsls	r1, r3, #26
 8003448:	d506      	bpl.n	8003458 <UART_AdvFeatureConfig+0x70>
 800344a:	6801      	ldr	r1, [r0, #0]
 800344c:	6bc4      	ldr	r4, [r0, #60]	@ 0x3c
 800344e:	688a      	ldr	r2, [r1, #8]
 8003450:	f422 5200 	bic.w	r2, r2, #8192	@ 0x2000
 8003454:	4322      	orrs	r2, r4
 8003456:	608a      	str	r2, [r1, #8]
 8003458:	065a      	lsls	r2, r3, #25
 800345a:	d510      	bpl.n	800347e <UART_AdvFeatureConfig+0x96>
 800345c:	6801      	ldr	r1, [r0, #0]
 800345e:	6c04      	ldr	r4, [r0, #64]	@ 0x40
 8003460:	684a      	ldr	r2, [r1, #4]
 8003462:	f5b4 1f80 	cmp.w	r4, #1048576	@ 0x100000
 8003466:	f422 1280 	bic.w	r2, r2, #1048576	@ 0x100000
 800346a:	ea42 0204 	orr.w	r2, r2, r4
 800346e:	604a      	str	r2, [r1, #4]
 8003470:	d105      	bne.n	800347e <UART_AdvFeatureConfig+0x96>
 8003472:	684a      	ldr	r2, [r1, #4]
 8003474:	6c44      	ldr	r4, [r0, #68]	@ 0x44
 8003476:	f422 02c0 	bic.w	r2, r2, #6291456	@ 0x600000
 800347a:	4322      	orrs	r2, r4
 800347c:	604a      	str	r2, [r1, #4]
 800347e:	061b      	lsls	r3, r3, #24
 8003480:	d506      	bpl.n	8003490 <UART_AdvFeatureConfig+0xa8>
 8003482:	6802      	ldr	r2, [r0, #0]
 8003484:	6c81      	ldr	r1, [r0, #72]	@ 0x48
 8003486:	6853      	ldr	r3, [r2, #4]
 8003488:	f423 2300 	bic.w	r3, r3, #524288	@ 0x80000
 800348c:	430b      	orrs	r3, r1
 800348e:	6053      	str	r3, [r2, #4]
 8003490:	bd10      	pop	{r4, pc}

08003492 <UART_WaitOnFlagUntilTimeout>:
 8003492:	e92d 43f8 	stmdb	sp!, {r3, r4, r5, r6, r7, r8, r9, lr}
 8003496:	f8dd 9020 	ldr.w	r9, [sp, #32]
 800349a:	4604      	mov	r4, r0
 800349c:	460d      	mov	r5, r1
 800349e:	4617      	mov	r7, r2
 80034a0:	4698      	mov	r8, r3
 80034a2:	6822      	ldr	r2, [r4, #0]
 80034a4:	69d3      	ldr	r3, [r2, #28]
 80034a6:	ea35 0303 	bics.w	r3, r5, r3
 80034aa:	bf0c      	ite	eq
 80034ac:	2301      	moveq	r3, #1
 80034ae:	2300      	movne	r3, #0
 80034b0:	42bb      	cmp	r3, r7
 80034b2:	d001      	beq.n	80034b8 <UART_WaitOnFlagUntilTimeout+0x26>
 80034b4:	2000      	movs	r0, #0
 80034b6:	e022      	b.n	80034fe <UART_WaitOnFlagUntilTimeout+0x6c>
 80034b8:	f1b9 3fff 	cmp.w	r9, #4294967295	@ 0xffffffff
 80034bc:	d0f2      	beq.n	80034a4 <UART_WaitOnFlagUntilTimeout+0x12>
 80034be:	f7fe fd73 	bl	8001fa8 <HAL_GetTick>
 80034c2:	eba0 0008 	sub.w	r0, r0, r8
 80034c6:	4548      	cmp	r0, r9
 80034c8:	d829      	bhi.n	800351e <UART_WaitOnFlagUntilTimeout+0x8c>
 80034ca:	f1b9 0f00 	cmp.w	r9, #0
 80034ce:	d026      	beq.n	800351e <UART_WaitOnFlagUntilTimeout+0x8c>
 80034d0:	6821      	ldr	r1, [r4, #0]
 80034d2:	680b      	ldr	r3, [r1, #0]
 80034d4:	075a      	lsls	r2, r3, #29
 80034d6:	d5e4      	bpl.n	80034a2 <UART_WaitOnFlagUntilTimeout+0x10>
 80034d8:	2d80      	cmp	r5, #128	@ 0x80
 80034da:	d0e2      	beq.n	80034a2 <UART_WaitOnFlagUntilTimeout+0x10>
 80034dc:	2d40      	cmp	r5, #64	@ 0x40
 80034de:	d0e0      	beq.n	80034a2 <UART_WaitOnFlagUntilTimeout+0x10>
 80034e0:	69ce      	ldr	r6, [r1, #28]
 80034e2:	f016 0608 	ands.w	r6, r6, #8
 80034e6:	d00c      	beq.n	8003502 <UART_WaitOnFlagUntilTimeout+0x70>
 80034e8:	2508      	movs	r5, #8
 80034ea:	4620      	mov	r0, r4
 80034ec:	620d      	str	r5, [r1, #32]
 80034ee:	f7ff fe37 	bl	8003160 <UART_EndRxTransfer>
 80034f2:	2300      	movs	r3, #0
 80034f4:	2001      	movs	r0, #1
 80034f6:	f8c4 5084 	str.w	r5, [r4, #132]	@ 0x84
 80034fa:	f884 3078 	strb.w	r3, [r4, #120]	@ 0x78
 80034fe:	e8bd 83f8 	ldmia.w	sp!, {r3, r4, r5, r6, r7, r8, r9, pc}
 8003502:	69cb      	ldr	r3, [r1, #28]
 8003504:	051b      	lsls	r3, r3, #20
 8003506:	d5cc      	bpl.n	80034a2 <UART_WaitOnFlagUntilTimeout+0x10>
 8003508:	f44f 6300 	mov.w	r3, #2048	@ 0x800
 800350c:	4620      	mov	r0, r4
 800350e:	620b      	str	r3, [r1, #32]
 8003510:	f7ff fe26 	bl	8003160 <UART_EndRxTransfer>
 8003514:	2320      	movs	r3, #32
 8003516:	f884 6078 	strb.w	r6, [r4, #120]	@ 0x78
 800351a:	f8c4 3084 	str.w	r3, [r4, #132]	@ 0x84
 800351e:	2003      	movs	r0, #3
 8003520:	e7ed      	b.n	80034fe <UART_WaitOnFlagUntilTimeout+0x6c>

08003522 <HAL_UART_Transmit>:
 8003522:	e92d 43f7 	stmdb	sp!, {r0, r1, r2, r4, r5, r6, r7, r8, r9, lr}
 8003526:	4698      	mov	r8, r3
 8003528:	6fc3      	ldr	r3, [r0, #124]	@ 0x7c
 800352a:	4604      	mov	r4, r0
 800352c:	460e      	mov	r6, r1
 800352e:	2b20      	cmp	r3, #32
 8003530:	4617      	mov	r7, r2
 8003532:	d143      	bne.n	80035bc <HAL_UART_Transmit+0x9a>
 8003534:	2900      	cmp	r1, #0
 8003536:	d043      	beq.n	80035c0 <HAL_UART_Transmit+0x9e>
 8003538:	2a00      	cmp	r2, #0
 800353a:	d041      	beq.n	80035c0 <HAL_UART_Transmit+0x9e>
 800353c:	2321      	movs	r3, #33	@ 0x21
 800353e:	2500      	movs	r5, #0
 8003540:	f8c0 5084 	str.w	r5, [r0, #132]	@ 0x84
 8003544:	67c3      	str	r3, [r0, #124]	@ 0x7c
 8003546:	f7fe fd2f 	bl	8001fa8 <HAL_GetTick>
 800354a:	68a3      	ldr	r3, [r4, #8]
 800354c:	4681      	mov	r9, r0
 800354e:	f8a4 7050 	strh.w	r7, [r4, #80]	@ 0x50
 8003552:	f5b3 5f80 	cmp.w	r3, #4096	@ 0x1000
 8003556:	f8a4 7052 	strh.w	r7, [r4, #82]	@ 0x52
 800355a:	d103      	bne.n	8003564 <HAL_UART_Transmit+0x42>
 800355c:	6923      	ldr	r3, [r4, #16]
 800355e:	b90b      	cbnz	r3, 8003564 <HAL_UART_Transmit+0x42>
 8003560:	4635      	mov	r5, r6
 8003562:	461e      	mov	r6, r3
 8003564:	f8b4 2052 	ldrh.w	r2, [r4, #82]	@ 0x52
 8003568:	464b      	mov	r3, r9
 800356a:	f8cd 8000 	str.w	r8, [sp]
 800356e:	b292      	uxth	r2, r2
 8003570:	b93a      	cbnz	r2, 8003582 <HAL_UART_Transmit+0x60>
 8003572:	2140      	movs	r1, #64	@ 0x40
 8003574:	4620      	mov	r0, r4
 8003576:	f7ff ff8c 	bl	8003492 <UART_WaitOnFlagUntilTimeout>
 800357a:	2320      	movs	r3, #32
 800357c:	b940      	cbnz	r0, 8003590 <HAL_UART_Transmit+0x6e>
 800357e:	67e3      	str	r3, [r4, #124]	@ 0x7c
 8003580:	e008      	b.n	8003594 <HAL_UART_Transmit+0x72>
 8003582:	2200      	movs	r2, #0
 8003584:	2180      	movs	r1, #128	@ 0x80
 8003586:	4620      	mov	r0, r4
 8003588:	f7ff ff83 	bl	8003492 <UART_WaitOnFlagUntilTimeout>
 800358c:	b128      	cbz	r0, 800359a <HAL_UART_Transmit+0x78>
 800358e:	2320      	movs	r3, #32
 8003590:	2003      	movs	r0, #3
 8003592:	67e3      	str	r3, [r4, #124]	@ 0x7c
 8003594:	b003      	add	sp, #12
 8003596:	e8bd 83f0 	ldmia.w	sp!, {r4, r5, r6, r7, r8, r9, pc}
 800359a:	6822      	ldr	r2, [r4, #0]
 800359c:	b95e      	cbnz	r6, 80035b6 <HAL_UART_Transmit+0x94>
 800359e:	f835 3b02 	ldrh.w	r3, [r5], #2
 80035a2:	f3c3 0308 	ubfx	r3, r3, #0, #9
 80035a6:	6293      	str	r3, [r2, #40]	@ 0x28
 80035a8:	f8b4 2052 	ldrh.w	r2, [r4, #82]	@ 0x52
 80035ac:	3a01      	subs	r2, #1
 80035ae:	b292      	uxth	r2, r2
 80035b0:	f8a4 2052 	strh.w	r2, [r4, #82]	@ 0x52
 80035b4:	e7d6      	b.n	8003564 <HAL_UART_Transmit+0x42>
 80035b6:	f816 3b01 	ldrb.w	r3, [r6], #1
 80035ba:	e7f4      	b.n	80035a6 <HAL_UART_Transmit+0x84>
 80035bc:	2002      	movs	r0, #2
 80035be:	e7e9      	b.n	8003594 <HAL_UART_Transmit+0x72>
 80035c0:	2001      	movs	r0, #1
 80035c2:	e7e7      	b.n	8003594 <HAL_UART_Transmit+0x72>

080035c4 <UART_CheckIdleState>:
 80035c4:	b537      	push	{r0, r1, r2, r4, r5, lr}
 80035c6:	2500      	movs	r5, #0
 80035c8:	4604      	mov	r4, r0
 80035ca:	f8c0 5084 	str.w	r5, [r0, #132]	@ 0x84
 80035ce:	f7fe fceb 	bl	8001fa8 <HAL_GetTick>
 80035d2:	6822      	ldr	r2, [r4, #0]
 80035d4:	4603      	mov	r3, r0
 80035d6:	6812      	ldr	r2, [r2, #0]
 80035d8:	0712      	lsls	r2, r2, #28
 80035da:	d51a      	bpl.n	8003612 <UART_CheckIdleState+0x4e>
 80035dc:	f06f 427e 	mvn.w	r2, #4261412864	@ 0xfe000000
 80035e0:	f44f 1100 	mov.w	r1, #2097152	@ 0x200000
 80035e4:	4620      	mov	r0, r4
 80035e6:	9200      	str	r2, [sp, #0]
 80035e8:	462a      	mov	r2, r5
 80035ea:	f7ff ff52 	bl	8003492 <UART_WaitOnFlagUntilTimeout>
 80035ee:	b180      	cbz	r0, 8003612 <UART_CheckIdleState+0x4e>
 80035f0:	6822      	ldr	r2, [r4, #0]
 80035f2:	e852 3f00 	ldrex	r3, [r2]
 80035f6:	f023 0380 	bic.w	r3, r3, #128	@ 0x80
 80035fa:	e842 3100 	strex	r1, r3, [r2]
 80035fe:	2900      	cmp	r1, #0
 8003600:	d1f6      	bne.n	80035f0 <UART_CheckIdleState+0x2c>
 8003602:	2320      	movs	r3, #32
 8003604:	2003      	movs	r0, #3
 8003606:	67e3      	str	r3, [r4, #124]	@ 0x7c
 8003608:	2300      	movs	r3, #0
 800360a:	f884 3078 	strb.w	r3, [r4, #120]	@ 0x78
 800360e:	b003      	add	sp, #12
 8003610:	bd30      	pop	{r4, r5, pc}
 8003612:	2320      	movs	r3, #32
 8003614:	2000      	movs	r0, #0
 8003616:	67e3      	str	r3, [r4, #124]	@ 0x7c
 8003618:	f8c4 3080 	str.w	r3, [r4, #128]	@ 0x80
 800361c:	6620      	str	r0, [r4, #96]	@ 0x60
 800361e:	6660      	str	r0, [r4, #100]	@ 0x64
 8003620:	e7f2      	b.n	8003608 <UART_CheckIdleState+0x44>

08003622 <HAL_UART_Init>:
 8003622:	b510      	push	{r4, lr}
 8003624:	4604      	mov	r4, r0
 8003626:	b340      	cbz	r0, 800367a <HAL_UART_Init+0x58>
 8003628:	6fc3      	ldr	r3, [r0, #124]	@ 0x7c
 800362a:	b91b      	cbnz	r3, 8003634 <HAL_UART_Init+0x12>
 800362c:	f880 3078 	strb.w	r3, [r0, #120]	@ 0x78
 8003630:	f7fe fb60 	bl	8001cf4 <HAL_UART_MspInit>
 8003634:	2324      	movs	r3, #36	@ 0x24
 8003636:	6822      	ldr	r2, [r4, #0]
 8003638:	67e3      	str	r3, [r4, #124]	@ 0x7c
 800363a:	6813      	ldr	r3, [r2, #0]
 800363c:	f023 0301 	bic.w	r3, r3, #1
 8003640:	6013      	str	r3, [r2, #0]
 8003642:	6a63      	ldr	r3, [r4, #36]	@ 0x24
 8003644:	b113      	cbz	r3, 800364c <HAL_UART_Init+0x2a>
 8003646:	4620      	mov	r0, r4
 8003648:	f7ff fece 	bl	80033e8 <UART_AdvFeatureConfig>
 800364c:	4620      	mov	r0, r4
 800364e:	f7ff fdaf 	bl	80031b0 <UART_SetConfig>
 8003652:	2801      	cmp	r0, #1
 8003654:	d011      	beq.n	800367a <HAL_UART_Init+0x58>
 8003656:	6823      	ldr	r3, [r4, #0]
 8003658:	4620      	mov	r0, r4
 800365a:	685a      	ldr	r2, [r3, #4]
 800365c:	f422 4290 	bic.w	r2, r2, #18432	@ 0x4800
 8003660:	605a      	str	r2, [r3, #4]
 8003662:	689a      	ldr	r2, [r3, #8]
 8003664:	f022 022a 	bic.w	r2, r2, #42	@ 0x2a
 8003668:	609a      	str	r2, [r3, #8]
 800366a:	681a      	ldr	r2, [r3, #0]
 800366c:	f042 0201 	orr.w	r2, r2, #1
 8003670:	e8bd 4010 	ldmia.w	sp!, {r4, lr}
 8003674:	601a      	str	r2, [r3, #0]
 8003676:	f7ff bfa5 	b.w	80035c4 <UART_CheckIdleState>
 800367a:	2001      	movs	r0, #1
 800367c:	bd10      	pop	{r4, pc}

0800367e <USB_CoreReset>:
 800367e:	b082      	sub	sp, #8
 8003680:	2300      	movs	r3, #0
 8003682:	4602      	mov	r2, r0
 8003684:	9301      	str	r3, [sp, #4]
 8003686:	9b01      	ldr	r3, [sp, #4]
 8003688:	3301      	adds	r3, #1
 800368a:	9301      	str	r3, [sp, #4]
 800368c:	9b01      	ldr	r3, [sp, #4]
 800368e:	f1b3 6f70 	cmp.w	r3, #251658240	@ 0xf000000
 8003692:	d815      	bhi.n	80036c0 <USB_CoreReset+0x42>
 8003694:	6913      	ldr	r3, [r2, #16]
 8003696:	2b00      	cmp	r3, #0
 8003698:	daf5      	bge.n	8003686 <USB_CoreReset+0x8>
 800369a:	2300      	movs	r3, #0
 800369c:	9301      	str	r3, [sp, #4]
 800369e:	6913      	ldr	r3, [r2, #16]
 80036a0:	f043 0301 	orr.w	r3, r3, #1
 80036a4:	6113      	str	r3, [r2, #16]
 80036a6:	9b01      	ldr	r3, [sp, #4]
 80036a8:	3301      	adds	r3, #1
 80036aa:	9301      	str	r3, [sp, #4]
 80036ac:	9b01      	ldr	r3, [sp, #4]
 80036ae:	f1b3 6f70 	cmp.w	r3, #251658240	@ 0xf000000
 80036b2:	d805      	bhi.n	80036c0 <USB_CoreReset+0x42>
 80036b4:	6910      	ldr	r0, [r2, #16]
 80036b6:	f010 0001 	ands.w	r0, r0, #1
 80036ba:	d1f4      	bne.n	80036a6 <USB_CoreReset+0x28>
 80036bc:	b002      	add	sp, #8
 80036be:	4770      	bx	lr
 80036c0:	2003      	movs	r0, #3
 80036c2:	e7fb      	b.n	80036bc <USB_CoreReset+0x3e>

080036c4 <USB_CoreInit>:
 80036c4:	b084      	sub	sp, #16
 80036c6:	b538      	push	{r3, r4, r5, lr}
 80036c8:	ad05      	add	r5, sp, #20
 80036ca:	4604      	mov	r4, r0
 80036cc:	e885 000e 	stmia.w	r5, {r1, r2, r3}
 80036d0:	f89d 3019 	ldrb.w	r3, [sp, #25]
 80036d4:	2b01      	cmp	r3, #1
 80036d6:	d128      	bne.n	800372a <USB_CoreInit+0x66>
 80036d8:	6b83      	ldr	r3, [r0, #56]	@ 0x38
 80036da:	f423 3380 	bic.w	r3, r3, #65536	@ 0x10000
 80036de:	6383      	str	r3, [r0, #56]	@ 0x38
 80036e0:	68c3      	ldr	r3, [r0, #12]
 80036e2:	f423 0384 	bic.w	r3, r3, #4325376	@ 0x420000
 80036e6:	f023 0340 	bic.w	r3, r3, #64	@ 0x40
 80036ea:	60c3      	str	r3, [r0, #12]
 80036ec:	68c3      	ldr	r3, [r0, #12]
 80036ee:	f423 1340 	bic.w	r3, r3, #3145728	@ 0x300000
 80036f2:	60c3      	str	r3, [r0, #12]
 80036f4:	f89d 3020 	ldrb.w	r3, [sp, #32]
 80036f8:	2b01      	cmp	r3, #1
 80036fa:	d103      	bne.n	8003704 <USB_CoreInit+0x40>
 80036fc:	68c3      	ldr	r3, [r0, #12]
 80036fe:	f443 1380 	orr.w	r3, r3, #1048576	@ 0x100000
 8003702:	60c3      	str	r3, [r0, #12]
 8003704:	4620      	mov	r0, r4
 8003706:	f7ff ffba 	bl	800367e <USB_CoreReset>
 800370a:	f89d 3016 	ldrb.w	r3, [sp, #22]
 800370e:	2b01      	cmp	r3, #1
 8003710:	d107      	bne.n	8003722 <USB_CoreInit+0x5e>
 8003712:	68a3      	ldr	r3, [r4, #8]
 8003714:	f043 0306 	orr.w	r3, r3, #6
 8003718:	60a3      	str	r3, [r4, #8]
 800371a:	68a3      	ldr	r3, [r4, #8]
 800371c:	f043 0320 	orr.w	r3, r3, #32
 8003720:	60a3      	str	r3, [r4, #8]
 8003722:	e8bd 4038 	ldmia.w	sp!, {r3, r4, r5, lr}
 8003726:	b004      	add	sp, #16
 8003728:	4770      	bx	lr
 800372a:	68c3      	ldr	r3, [r0, #12]
 800372c:	f043 0340 	orr.w	r3, r3, #64	@ 0x40
 8003730:	60c3      	str	r3, [r0, #12]
 8003732:	f7ff ffa4 	bl	800367e <USB_CoreReset>
 8003736:	6ba3      	ldr	r3, [r4, #56]	@ 0x38
 8003738:	f443 3380 	orr.w	r3, r3, #65536	@ 0x10000
 800373c:	63a3      	str	r3, [r4, #56]	@ 0x38
 800373e:	e7e4      	b.n	800370a <USB_CoreInit+0x46>

08003740 <USB_DisableGlobalInt>:
 8003740:	6883      	ldr	r3, [r0, #8]
 8003742:	f023 0301 	bic.w	r3, r3, #1
 8003746:	6083      	str	r3, [r0, #8]
 8003748:	2000      	movs	r0, #0
 800374a:	4770      	bx	lr

0800374c <USB_SetCurrentMode>:
 800374c:	b538      	push	{r3, r4, r5, lr}
 800374e:	68c3      	ldr	r3, [r0, #12]
 8003750:	2901      	cmp	r1, #1
 8003752:	4605      	mov	r5, r0
 8003754:	460c      	mov	r4, r1
 8003756:	f023 43c0 	bic.w	r3, r3, #1610612736	@ 0x60000000
 800375a:	60c3      	str	r3, [r0, #12]
 800375c:	d113      	bne.n	8003786 <USB_SetCurrentMode+0x3a>
 800375e:	68c3      	ldr	r3, [r0, #12]
 8003760:	2400      	movs	r4, #0
 8003762:	f043 5300 	orr.w	r3, r3, #536870912	@ 0x20000000
 8003766:	60c3      	str	r3, [r0, #12]
 8003768:	200a      	movs	r0, #10
 800376a:	340a      	adds	r4, #10
 800376c:	f7fe fc22 	bl	8001fb4 <HAL_Delay>
 8003770:	696b      	ldr	r3, [r5, #20]
 8003772:	07d9      	lsls	r1, r3, #31
 8003774:	d402      	bmi.n	800377c <USB_SetCurrentMode+0x30>
 8003776:	2cc8      	cmp	r4, #200	@ 0xc8
 8003778:	d1f6      	bne.n	8003768 <USB_SetCurrentMode+0x1c>
 800377a:	24c8      	movs	r4, #200	@ 0xc8
 800377c:	f1a4 03c8 	sub.w	r3, r4, #200	@ 0xc8
 8003780:	4258      	negs	r0, r3
 8003782:	4158      	adcs	r0, r3
 8003784:	bd38      	pop	{r3, r4, r5, pc}
 8003786:	b969      	cbnz	r1, 80037a4 <USB_SetCurrentMode+0x58>
 8003788:	68c3      	ldr	r3, [r0, #12]
 800378a:	f043 4380 	orr.w	r3, r3, #1073741824	@ 0x40000000
 800378e:	60c3      	str	r3, [r0, #12]
 8003790:	200a      	movs	r0, #10
 8003792:	340a      	adds	r4, #10
 8003794:	f7fe fc0e 	bl	8001fb4 <HAL_Delay>
 8003798:	696b      	ldr	r3, [r5, #20]
 800379a:	07da      	lsls	r2, r3, #31
 800379c:	d5ee      	bpl.n	800377c <USB_SetCurrentMode+0x30>
 800379e:	2cc8      	cmp	r4, #200	@ 0xc8
 80037a0:	d1f6      	bne.n	8003790 <USB_SetCurrentMode+0x44>
 80037a2:	e7ea      	b.n	800377a <USB_SetCurrentMode+0x2e>
 80037a4:	2001      	movs	r0, #1
 80037a6:	e7ed      	b.n	8003784 <USB_SetCurrentMode+0x38>

080037a8 <USB_FlushTxFifo>:
 80037a8:	b082      	sub	sp, #8
 80037aa:	2300      	movs	r3, #0
 80037ac:	4602      	mov	r2, r0
 80037ae:	9301      	str	r3, [sp, #4]
 80037b0:	9b01      	ldr	r3, [sp, #4]
 80037b2:	3301      	adds	r3, #1
 80037b4:	9301      	str	r3, [sp, #4]
 80037b6:	9b01      	ldr	r3, [sp, #4]
 80037b8:	f1b3 6f70 	cmp.w	r3, #251658240	@ 0xf000000
 80037bc:	d815      	bhi.n	80037ea <USB_FlushTxFifo+0x42>
 80037be:	6913      	ldr	r3, [r2, #16]
 80037c0:	2b00      	cmp	r3, #0
 80037c2:	daf5      	bge.n	80037b0 <USB_FlushTxFifo+0x8>
 80037c4:	0189      	lsls	r1, r1, #6
 80037c6:	2300      	movs	r3, #0
 80037c8:	f041 0120 	orr.w	r1, r1, #32
 80037cc:	9301      	str	r3, [sp, #4]
 80037ce:	6111      	str	r1, [r2, #16]
 80037d0:	9b01      	ldr	r3, [sp, #4]
 80037d2:	3301      	adds	r3, #1
 80037d4:	9301      	str	r3, [sp, #4]
 80037d6:	9b01      	ldr	r3, [sp, #4]
 80037d8:	f1b3 6f70 	cmp.w	r3, #251658240	@ 0xf000000
 80037dc:	d805      	bhi.n	80037ea <USB_FlushTxFifo+0x42>
 80037de:	6910      	ldr	r0, [r2, #16]
 80037e0:	f010 0020 	ands.w	r0, r0, #32
 80037e4:	d1f4      	bne.n	80037d0 <USB_FlushTxFifo+0x28>
 80037e6:	b002      	add	sp, #8
 80037e8:	4770      	bx	lr
 80037ea:	2003      	movs	r0, #3
 80037ec:	e7fb      	b.n	80037e6 <USB_FlushTxFifo+0x3e>

080037ee <USB_FlushRxFifo>:
 80037ee:	b082      	sub	sp, #8
 80037f0:	2300      	movs	r3, #0
 80037f2:	4602      	mov	r2, r0
 80037f4:	9301      	str	r3, [sp, #4]
 80037f6:	9b01      	ldr	r3, [sp, #4]
 80037f8:	3301      	adds	r3, #1
 80037fa:	9301      	str	r3, [sp, #4]
 80037fc:	9b01      	ldr	r3, [sp, #4]
 80037fe:	f1b3 6f70 	cmp.w	r3, #251658240	@ 0xf000000
 8003802:	d813      	bhi.n	800382c <USB_FlushRxFifo+0x3e>
 8003804:	6913      	ldr	r3, [r2, #16]
 8003806:	2b00      	cmp	r3, #0
 8003808:	daf5      	bge.n	80037f6 <USB_FlushRxFifo+0x8>
 800380a:	2300      	movs	r3, #0
 800380c:	9301      	str	r3, [sp, #4]
 800380e:	2310      	movs	r3, #16
 8003810:	6113      	str	r3, [r2, #16]
 8003812:	9b01      	ldr	r3, [sp, #4]
 8003814:	3301      	adds	r3, #1
 8003816:	9301      	str	r3, [sp, #4]
 8003818:	9b01      	ldr	r3, [sp, #4]
 800381a:	f1b3 6f70 	cmp.w	r3, #251658240	@ 0xf000000
 800381e:	d805      	bhi.n	800382c <USB_FlushRxFifo+0x3e>
 8003820:	6910      	ldr	r0, [r2, #16]
 8003822:	f010 0010 	ands.w	r0, r0, #16
 8003826:	d1f4      	bne.n	8003812 <USB_FlushRxFifo+0x24>
 8003828:	b002      	add	sp, #8
 800382a:	4770      	bx	lr
 800382c:	2003      	movs	r0, #3
 800382e:	e7fb      	b.n	8003828 <USB_FlushRxFifo+0x3a>

08003830 <USB_SetDevSpeed>:
 8003830:	f8d0 3800 	ldr.w	r3, [r0, #2048]	@ 0x800
 8003834:	4319      	orrs	r1, r3
 8003836:	f8c0 1800 	str.w	r1, [r0, #2048]	@ 0x800
 800383a:	2000      	movs	r0, #0
 800383c:	4770      	bx	lr
	...

08003840 <USB_DevInit>:
 8003840:	b084      	sub	sp, #16
 8003842:	e92d 43f8 	stmdb	sp!, {r3, r4, r5, r6, r7, r8, r9, lr}
 8003846:	4604      	mov	r4, r0
 8003848:	a809      	add	r0, sp, #36	@ 0x24
 800384a:	e880 000e 	stmia.w	r0, {r1, r2, r3}
 800384e:	2300      	movs	r3, #0
 8003850:	f89d 6024 	ldrb.w	r6, [sp, #36]	@ 0x24
 8003854:	f89d 502e 	ldrb.w	r5, [sp, #46]	@ 0x2e
 8003858:	4619      	mov	r1, r3
 800385a:	f103 0240 	add.w	r2, r3, #64	@ 0x40
 800385e:	3301      	adds	r3, #1
 8003860:	eb04 0282 	add.w	r2, r4, r2, lsl #2
 8003864:	2b0f      	cmp	r3, #15
 8003866:	6051      	str	r1, [r2, #4]
 8003868:	d1f7      	bne.n	800385a <USB_DevInit+0x1a>
 800386a:	f504 6700 	add.w	r7, r4, #2048	@ 0x800
 800386e:	2d00      	cmp	r5, #0
 8003870:	d16c      	bne.n	800394c <USB_DevInit+0x10c>
 8003872:	687b      	ldr	r3, [r7, #4]
 8003874:	f043 0302 	orr.w	r3, r3, #2
 8003878:	607b      	str	r3, [r7, #4]
 800387a:	6ba3      	ldr	r3, [r4, #56]	@ 0x38
 800387c:	f423 1300 	bic.w	r3, r3, #2097152	@ 0x200000
 8003880:	63a3      	str	r3, [r4, #56]	@ 0x38
 8003882:	6823      	ldr	r3, [r4, #0]
 8003884:	f043 0340 	orr.w	r3, r3, #64	@ 0x40
 8003888:	6023      	str	r3, [r4, #0]
 800388a:	6823      	ldr	r3, [r4, #0]
 800388c:	f043 0380 	orr.w	r3, r3, #128	@ 0x80
 8003890:	6023      	str	r3, [r4, #0]
 8003892:	2300      	movs	r3, #0
 8003894:	f8c4 3e00 	str.w	r3, [r4, #3584]	@ 0xe00
 8003898:	f89d 3029 	ldrb.w	r3, [sp, #41]	@ 0x29
 800389c:	2b01      	cmp	r3, #1
 800389e:	d15c      	bne.n	800395a <USB_DevInit+0x11a>
 80038a0:	f89d 1027 	ldrb.w	r1, [sp, #39]	@ 0x27
 80038a4:	2900      	cmp	r1, #0
 80038a6:	d156      	bne.n	8003956 <USB_DevInit+0x116>
 80038a8:	4620      	mov	r0, r4
 80038aa:	f64f 387f 	movw	r8, #64383	@ 0xfb7f
 80038ae:	f7ff ffbf 	bl	8003830 <USB_SetDevSpeed>
 80038b2:	2110      	movs	r1, #16
 80038b4:	4620      	mov	r0, r4
 80038b6:	f7ff ff77 	bl	80037a8 <USB_FlushTxFifo>
 80038ba:	4601      	mov	r1, r0
 80038bc:	4620      	mov	r0, r4
 80038be:	f7ff ff96 	bl	80037ee <USB_FlushRxFifo>
 80038c2:	4308      	orrs	r0, r1
 80038c4:	2300      	movs	r3, #0
 80038c6:	f504 6210 	add.w	r2, r4, #2304	@ 0x900
 80038ca:	b2c0      	uxtb	r0, r0
 80038cc:	f04f 4c90 	mov.w	ip, #1207959552	@ 0x48000000
 80038d0:	4619      	mov	r1, r3
 80038d2:	f04f 6e00 	mov.w	lr, #134217728	@ 0x8000000
 80038d6:	3800      	subs	r0, #0
 80038d8:	613b      	str	r3, [r7, #16]
 80038da:	617b      	str	r3, [r7, #20]
 80038dc:	bf18      	it	ne
 80038de:	2001      	movne	r0, #1
 80038e0:	61fb      	str	r3, [r7, #28]
 80038e2:	429e      	cmp	r6, r3
 80038e4:	d83b      	bhi.n	800395e <USB_DevInit+0x11e>
 80038e6:	2200      	movs	r2, #0
 80038e8:	f504 6330 	add.w	r3, r4, #2816	@ 0xb00
 80038ec:	f04f 4c90 	mov.w	ip, #1207959552	@ 0x48000000
 80038f0:	f04f 6e00 	mov.w	lr, #134217728	@ 0x8000000
 80038f4:	4611      	mov	r1, r2
 80038f6:	f64f 387f 	movw	r8, #64383	@ 0xfb7f
 80038fa:	4296      	cmp	r6, r2
 80038fc:	d842      	bhi.n	8003984 <USB_DevInit+0x144>
 80038fe:	693b      	ldr	r3, [r7, #16]
 8003900:	f423 7380 	bic.w	r3, r3, #256	@ 0x100
 8003904:	613b      	str	r3, [r7, #16]
 8003906:	2300      	movs	r3, #0
 8003908:	61a3      	str	r3, [r4, #24]
 800390a:	f06f 4380 	mvn.w	r3, #1073741824	@ 0x40000000
 800390e:	6163      	str	r3, [r4, #20]
 8003910:	f89d 3026 	ldrb.w	r3, [sp, #38]	@ 0x26
 8003914:	b91b      	cbnz	r3, 800391e <USB_DevInit+0xde>
 8003916:	69a3      	ldr	r3, [r4, #24]
 8003918:	f043 0310 	orr.w	r3, r3, #16
 800391c:	61a3      	str	r3, [r4, #24]
 800391e:	69a2      	ldr	r2, [r4, #24]
 8003920:	4b22      	ldr	r3, [pc, #136]	@ (80039ac <USB_DevInit+0x16c>)
 8003922:	4313      	orrs	r3, r2
 8003924:	61a3      	str	r3, [r4, #24]
 8003926:	f89d 302a 	ldrb.w	r3, [sp, #42]	@ 0x2a
 800392a:	b11b      	cbz	r3, 8003934 <USB_DevInit+0xf4>
 800392c:	69a3      	ldr	r3, [r4, #24]
 800392e:	f043 0308 	orr.w	r3, r3, #8
 8003932:	61a3      	str	r3, [r4, #24]
 8003934:	2d01      	cmp	r5, #1
 8003936:	d105      	bne.n	8003944 <USB_DevInit+0x104>
 8003938:	69a3      	ldr	r3, [r4, #24]
 800393a:	f043 4380 	orr.w	r3, r3, #1073741824	@ 0x40000000
 800393e:	f043 0304 	orr.w	r3, r3, #4
 8003942:	61a3      	str	r3, [r4, #24]
 8003944:	e8bd 43f8 	ldmia.w	sp!, {r3, r4, r5, r6, r7, r8, r9, lr}
 8003948:	b004      	add	sp, #16
 800394a:	4770      	bx	lr
 800394c:	6ba3      	ldr	r3, [r4, #56]	@ 0x38
 800394e:	f443 1300 	orr.w	r3, r3, #2097152	@ 0x200000
 8003952:	63a3      	str	r3, [r4, #56]	@ 0x38
 8003954:	e79d      	b.n	8003892 <USB_DevInit+0x52>
 8003956:	4619      	mov	r1, r3
 8003958:	e7a6      	b.n	80038a8 <USB_DevInit+0x68>
 800395a:	2103      	movs	r1, #3
 800395c:	e7a4      	b.n	80038a8 <USB_DevInit+0x68>
 800395e:	f8d2 9000 	ldr.w	r9, [r2]
 8003962:	f1b9 0f00 	cmp.w	r9, #0
 8003966:	da0b      	bge.n	8003980 <USB_DevInit+0x140>
 8003968:	b93b      	cbnz	r3, 800397a <USB_DevInit+0x13a>
 800396a:	f8c2 e000 	str.w	lr, [r2]
 800396e:	6111      	str	r1, [r2, #16]
 8003970:	3301      	adds	r3, #1
 8003972:	f8c2 8008 	str.w	r8, [r2, #8]
 8003976:	3220      	adds	r2, #32
 8003978:	e7b3      	b.n	80038e2 <USB_DevInit+0xa2>
 800397a:	f8c2 c000 	str.w	ip, [r2]
 800397e:	e7f6      	b.n	800396e <USB_DevInit+0x12e>
 8003980:	6011      	str	r1, [r2, #0]
 8003982:	e7f4      	b.n	800396e <USB_DevInit+0x12e>
 8003984:	f8d3 9000 	ldr.w	r9, [r3]
 8003988:	f1b9 0f00 	cmp.w	r9, #0
 800398c:	da0b      	bge.n	80039a6 <USB_DevInit+0x166>
 800398e:	b93a      	cbnz	r2, 80039a0 <USB_DevInit+0x160>
 8003990:	f8c3 e000 	str.w	lr, [r3]
 8003994:	6119      	str	r1, [r3, #16]
 8003996:	3201      	adds	r2, #1
 8003998:	f8c3 8008 	str.w	r8, [r3, #8]
 800399c:	3320      	adds	r3, #32
 800399e:	e7ac      	b.n	80038fa <USB_DevInit+0xba>
 80039a0:	f8c3 c000 	str.w	ip, [r3]
 80039a4:	e7f6      	b.n	8003994 <USB_DevInit+0x154>
 80039a6:	6019      	str	r1, [r3, #0]
 80039a8:	e7f4      	b.n	8003994 <USB_DevInit+0x154>
 80039aa:	bf00      	nop
 80039ac:	803c3800 	.word	0x803c3800

080039b0 <USB_DevDisconnect>:
 80039b0:	f8d0 3e00 	ldr.w	r3, [r0, #3584]	@ 0xe00
 80039b4:	f023 0303 	bic.w	r3, r3, #3
 80039b8:	f8c0 3e00 	str.w	r3, [r0, #3584]	@ 0xe00
 80039bc:	f8d0 3804 	ldr.w	r3, [r0, #2052]	@ 0x804
 80039c0:	f043 0302 	orr.w	r3, r3, #2
 80039c4:	f8c0 3804 	str.w	r3, [r0, #2052]	@ 0x804
 80039c8:	2000      	movs	r0, #0
 80039ca:	4770      	bx	lr

080039cc <std>:
 80039cc:	2300      	movs	r3, #0
 80039ce:	b510      	push	{r4, lr}
 80039d0:	4604      	mov	r4, r0
 80039d2:	e9c0 3300 	strd	r3, r3, [r0]
 80039d6:	e9c0 3304 	strd	r3, r3, [r0, #16]
 80039da:	6083      	str	r3, [r0, #8]
 80039dc:	8181      	strh	r1, [r0, #12]
 80039de:	6643      	str	r3, [r0, #100]	@ 0x64
 80039e0:	81c2      	strh	r2, [r0, #14]
 80039e2:	6183      	str	r3, [r0, #24]
 80039e4:	4619      	mov	r1, r3
 80039e6:	2208      	movs	r2, #8
 80039e8:	305c      	adds	r0, #92	@ 0x5c
 80039ea:	f000 f92e 	bl	8003c4a <memset>
 80039ee:	4b0d      	ldr	r3, [pc, #52]	@ (8003a24 <std+0x58>)
 80039f0:	6263      	str	r3, [r4, #36]	@ 0x24
 80039f2:	4b0d      	ldr	r3, [pc, #52]	@ (8003a28 <std+0x5c>)
 80039f4:	62a3      	str	r3, [r4, #40]	@ 0x28
 80039f6:	4b0d      	ldr	r3, [pc, #52]	@ (8003a2c <std+0x60>)
 80039f8:	62e3      	str	r3, [r4, #44]	@ 0x2c
 80039fa:	4b0d      	ldr	r3, [pc, #52]	@ (8003a30 <std+0x64>)
 80039fc:	6323      	str	r3, [r4, #48]	@ 0x30
 80039fe:	4b0d      	ldr	r3, [pc, #52]	@ (8003a34 <std+0x68>)
 8003a00:	6224      	str	r4, [r4, #32]
 8003a02:	429c      	cmp	r4, r3
 8003a04:	d006      	beq.n	8003a14 <std+0x48>
 8003a06:	f103 0268 	add.w	r2, r3, #104	@ 0x68
 8003a0a:	4294      	cmp	r4, r2
 8003a0c:	d002      	beq.n	8003a14 <std+0x48>
 8003a0e:	33d0      	adds	r3, #208	@ 0xd0
 8003a10:	429c      	cmp	r4, r3
 8003a12:	d105      	bne.n	8003a20 <std+0x54>
 8003a14:	f104 0058 	add.w	r0, r4, #88	@ 0x58
 8003a18:	e8bd 4010 	ldmia.w	sp!, {r4, lr}
 8003a1c:	f000 b98e 	b.w	8003d3c <__retarget_lock_init_recursive>
 8003a20:	bd10      	pop	{r4, pc}
 8003a22:	bf00      	nop
 8003a24:	08003bc5 	.word	0x08003bc5
 8003a28:	08003be7 	.word	0x08003be7
 8003a2c:	08003c1f 	.word	0x08003c1f
 8003a30:	08003c43 	.word	0x08003c43
 8003a34:	20001ccc 	.word	0x20001ccc

08003a38 <stdio_exit_handler>:
 8003a38:	4a02      	ldr	r2, [pc, #8]	@ (8003a44 <stdio_exit_handler+0xc>)
 8003a3a:	4903      	ldr	r1, [pc, #12]	@ (8003a48 <stdio_exit_handler+0x10>)
 8003a3c:	4803      	ldr	r0, [pc, #12]	@ (8003a4c <stdio_exit_handler+0x14>)
 8003a3e:	f000 b869 	b.w	8003b14 <_fwalk_sglue>
 8003a42:	bf00      	nop
 8003a44:	2000002c 	.word	0x2000002c
 8003a48:	0800488d 	.word	0x0800488d
 8003a4c:	2000003c 	.word	0x2000003c

08003a50 <cleanup_stdio>:
 8003a50:	6841      	ldr	r1, [r0, #4]
 8003a52:	4b0c      	ldr	r3, [pc, #48]	@ (8003a84 <cleanup_stdio+0x34>)
 8003a54:	4299      	cmp	r1, r3
 8003a56:	b510      	push	{r4, lr}
 8003a58:	4604      	mov	r4, r0
 8003a5a:	d001      	beq.n	8003a60 <cleanup_stdio+0x10>
 8003a5c:	f000 ff16 	bl	800488c <_fflush_r>
 8003a60:	68a1      	ldr	r1, [r4, #8]
 8003a62:	4b09      	ldr	r3, [pc, #36]	@ (8003a88 <cleanup_stdio+0x38>)
 8003a64:	4299      	cmp	r1, r3
 8003a66:	d002      	beq.n	8003a6e <cleanup_stdio+0x1e>
 8003a68:	4620      	mov	r0, r4
 8003a6a:	f000 ff0f 	bl	800488c <_fflush_r>
 8003a6e:	68e1      	ldr	r1, [r4, #12]
 8003a70:	4b06      	ldr	r3, [pc, #24]	@ (8003a8c <cleanup_stdio+0x3c>)
 8003a72:	4299      	cmp	r1, r3
 8003a74:	d004      	beq.n	8003a80 <cleanup_stdio+0x30>
 8003a76:	4620      	mov	r0, r4
 8003a78:	e8bd 4010 	ldmia.w	sp!, {r4, lr}
 8003a7c:	f000 bf06 	b.w	800488c <_fflush_r>
 8003a80:	bd10      	pop	{r4, pc}
 8003a82:	bf00      	nop
 8003a84:	20001ccc 	.word	0x20001ccc
 8003a88:	20001d34 	.word	0x20001d34
 8003a8c:	20001d9c 	.word	0x20001d9c

08003a90 <global_stdio_init.part.0>:
 8003a90:	b510      	push	{r4, lr}
 8003a92:	4b0b      	ldr	r3, [pc, #44]	@ (8003ac0 <global_stdio_init.part.0+0x30>)
 8003a94:	4c0b      	ldr	r4, [pc, #44]	@ (8003ac4 <global_stdio_init.part.0+0x34>)
 8003a96:	4a0c      	ldr	r2, [pc, #48]	@ (8003ac8 <global_stdio_init.part.0+0x38>)
 8003a98:	601a      	str	r2, [r3, #0]
 8003a9a:	4620      	mov	r0, r4
 8003a9c:	2200      	movs	r2, #0
 8003a9e:	2104      	movs	r1, #4
 8003aa0:	f7ff ff94 	bl	80039cc <std>
 8003aa4:	f104 0068 	add.w	r0, r4, #104	@ 0x68
 8003aa8:	2201      	movs	r2, #1
 8003aaa:	2109      	movs	r1, #9
 8003aac:	f7ff ff8e 	bl	80039cc <std>
 8003ab0:	f104 00d0 	add.w	r0, r4, #208	@ 0xd0
 8003ab4:	2202      	movs	r2, #2
 8003ab6:	e8bd 4010 	ldmia.w	sp!, {r4, lr}
 8003aba:	2112      	movs	r1, #18
 8003abc:	f7ff bf86 	b.w	80039cc <std>
 8003ac0:	20001e04 	.word	0x20001e04
 8003ac4:	20001ccc 	.word	0x20001ccc
 8003ac8:	08003a39 	.word	0x08003a39

08003acc <__sfp_lock_acquire>:
 8003acc:	4801      	ldr	r0, [pc, #4]	@ (8003ad4 <__sfp_lock_acquire+0x8>)
 8003ace:	f000 b936 	b.w	8003d3e <__retarget_lock_acquire_recursive>
 8003ad2:	bf00      	nop
 8003ad4:	20001e0d 	.word	0x20001e0d

08003ad8 <__sfp_lock_release>:
 8003ad8:	4801      	ldr	r0, [pc, #4]	@ (8003ae0 <__sfp_lock_release+0x8>)
 8003ada:	f000 b931 	b.w	8003d40 <__retarget_lock_release_recursive>
 8003ade:	bf00      	nop
 8003ae0:	20001e0d 	.word	0x20001e0d

08003ae4 <__sinit>:
 8003ae4:	b510      	push	{r4, lr}
 8003ae6:	4604      	mov	r4, r0
 8003ae8:	f7ff fff0 	bl	8003acc <__sfp_lock_acquire>
 8003aec:	6a23      	ldr	r3, [r4, #32]
 8003aee:	b11b      	cbz	r3, 8003af8 <__sinit+0x14>
 8003af0:	e8bd 4010 	ldmia.w	sp!, {r4, lr}
 8003af4:	f7ff bff0 	b.w	8003ad8 <__sfp_lock_release>
 8003af8:	4b04      	ldr	r3, [pc, #16]	@ (8003b0c <__sinit+0x28>)
 8003afa:	6223      	str	r3, [r4, #32]
 8003afc:	4b04      	ldr	r3, [pc, #16]	@ (8003b10 <__sinit+0x2c>)
 8003afe:	681b      	ldr	r3, [r3, #0]
 8003b00:	2b00      	cmp	r3, #0
 8003b02:	d1f5      	bne.n	8003af0 <__sinit+0xc>
 8003b04:	f7ff ffc4 	bl	8003a90 <global_stdio_init.part.0>
 8003b08:	e7f2      	b.n	8003af0 <__sinit+0xc>
 8003b0a:	bf00      	nop
 8003b0c:	08003a51 	.word	0x08003a51
 8003b10:	20001e04 	.word	0x20001e04

08003b14 <_fwalk_sglue>:
 8003b14:	e92d 43f8 	stmdb	sp!, {r3, r4, r5, r6, r7, r8, r9, lr}
 8003b18:	4607      	mov	r7, r0
 8003b1a:	4688      	mov	r8, r1
 8003b1c:	4614      	mov	r4, r2
 8003b1e:	2600      	movs	r6, #0
 8003b20:	e9d4 9501 	ldrd	r9, r5, [r4, #4]
 8003b24:	f1b9 0901 	subs.w	r9, r9, #1
 8003b28:	d505      	bpl.n	8003b36 <_fwalk_sglue+0x22>
 8003b2a:	6824      	ldr	r4, [r4, #0]
 8003b2c:	2c00      	cmp	r4, #0
 8003b2e:	d1f7      	bne.n	8003b20 <_fwalk_sglue+0xc>
 8003b30:	4630      	mov	r0, r6
 8003b32:	e8bd 83f8 	ldmia.w	sp!, {r3, r4, r5, r6, r7, r8, r9, pc}
 8003b36:	89ab      	ldrh	r3, [r5, #12]
 8003b38:	2b01      	cmp	r3, #1
 8003b3a:	d907      	bls.n	8003b4c <_fwalk_sglue+0x38>
 8003b3c:	f9b5 300e 	ldrsh.w	r3, [r5, #14]
 8003b40:	3301      	adds	r3, #1
 8003b42:	d003      	beq.n	8003b4c <_fwalk_sglue+0x38>
 8003b44:	4629      	mov	r1, r5
 8003b46:	4638      	mov	r0, r7
 8003b48:	47c0      	blx	r8
 8003b4a:	4306      	orrs	r6, r0
 8003b4c:	3568      	adds	r5, #104	@ 0x68
 8003b4e:	e7e9      	b.n	8003b24 <_fwalk_sglue+0x10>

08003b50 <iprintf>:
 8003b50:	b40f      	push	{r0, r1, r2, r3}
 8003b52:	b507      	push	{r0, r1, r2, lr}
 8003b54:	4906      	ldr	r1, [pc, #24]	@ (8003b70 <iprintf+0x20>)
 8003b56:	ab04      	add	r3, sp, #16
 8003b58:	6808      	ldr	r0, [r1, #0]
 8003b5a:	f853 2b04 	ldr.w	r2, [r3], #4
 8003b5e:	6881      	ldr	r1, [r0, #8]
 8003b60:	9301      	str	r3, [sp, #4]
 8003b62:	f000 fb69 	bl	8004238 <_vfiprintf_r>
 8003b66:	b003      	add	sp, #12
 8003b68:	f85d eb04 	ldr.w	lr, [sp], #4
 8003b6c:	b004      	add	sp, #16
 8003b6e:	4770      	bx	lr
 8003b70:	20000038 	.word	0x20000038

08003b74 <putchar>:
 8003b74:	4b02      	ldr	r3, [pc, #8]	@ (8003b80 <putchar+0xc>)
 8003b76:	4601      	mov	r1, r0
 8003b78:	6818      	ldr	r0, [r3, #0]
 8003b7a:	6882      	ldr	r2, [r0, #8]
 8003b7c:	f000 beae 	b.w	80048dc <_putc_r>
 8003b80:	20000038 	.word	0x20000038

08003b84 <siprintf>:
 8003b84:	b40e      	push	{r1, r2, r3}
 8003b86:	b500      	push	{lr}
 8003b88:	b09c      	sub	sp, #112	@ 0x70
 8003b8a:	ab1d      	add	r3, sp, #116	@ 0x74
 8003b8c:	9002      	str	r0, [sp, #8]
 8003b8e:	9006      	str	r0, [sp, #24]
 8003b90:	f06f 4100 	mvn.w	r1, #2147483648	@ 0x80000000
 8003b94:	4809      	ldr	r0, [pc, #36]	@ (8003bbc <siprintf+0x38>)
 8003b96:	9107      	str	r1, [sp, #28]
 8003b98:	9104      	str	r1, [sp, #16]
 8003b9a:	4909      	ldr	r1, [pc, #36]	@ (8003bc0 <siprintf+0x3c>)
 8003b9c:	f853 2b04 	ldr.w	r2, [r3], #4
 8003ba0:	9105      	str	r1, [sp, #20]
 8003ba2:	6800      	ldr	r0, [r0, #0]
 8003ba4:	9301      	str	r3, [sp, #4]
 8003ba6:	a902      	add	r1, sp, #8
 8003ba8:	f000 fa20 	bl	8003fec <_svfiprintf_r>
 8003bac:	9b02      	ldr	r3, [sp, #8]
 8003bae:	2200      	movs	r2, #0
 8003bb0:	701a      	strb	r2, [r3, #0]
 8003bb2:	b01c      	add	sp, #112	@ 0x70
 8003bb4:	f85d eb04 	ldr.w	lr, [sp], #4
 8003bb8:	b003      	add	sp, #12
 8003bba:	4770      	bx	lr
 8003bbc:	20000038 	.word	0x20000038
 8003bc0:	ffff0208 	.word	0xffff0208

08003bc4 <__sread>:
 8003bc4:	b510      	push	{r4, lr}
 8003bc6:	460c      	mov	r4, r1
 8003bc8:	f9b1 100e 	ldrsh.w	r1, [r1, #14]
 8003bcc:	f000 f868 	bl	8003ca0 <_read_r>
 8003bd0:	2800      	cmp	r0, #0
 8003bd2:	bfab      	itete	ge
 8003bd4:	6d63      	ldrge	r3, [r4, #84]	@ 0x54
 8003bd6:	89a3      	ldrhlt	r3, [r4, #12]
 8003bd8:	181b      	addge	r3, r3, r0
 8003bda:	f423 5380 	biclt.w	r3, r3, #4096	@ 0x1000
 8003bde:	bfac      	ite	ge
 8003be0:	6563      	strge	r3, [r4, #84]	@ 0x54
 8003be2:	81a3      	strhlt	r3, [r4, #12]
 8003be4:	bd10      	pop	{r4, pc}

08003be6 <__swrite>:
 8003be6:	e92d 41f0 	stmdb	sp!, {r4, r5, r6, r7, r8, lr}
 8003bea:	461f      	mov	r7, r3
 8003bec:	898b      	ldrh	r3, [r1, #12]
 8003bee:	05db      	lsls	r3, r3, #23
 8003bf0:	4605      	mov	r5, r0
 8003bf2:	460c      	mov	r4, r1
 8003bf4:	4616      	mov	r6, r2
 8003bf6:	d505      	bpl.n	8003c04 <__swrite+0x1e>
 8003bf8:	f9b1 100e 	ldrsh.w	r1, [r1, #14]
 8003bfc:	2302      	movs	r3, #2
 8003bfe:	2200      	movs	r2, #0
 8003c00:	f000 f83c 	bl	8003c7c <_lseek_r>
 8003c04:	89a3      	ldrh	r3, [r4, #12]
 8003c06:	f9b4 100e 	ldrsh.w	r1, [r4, #14]
 8003c0a:	f423 5380 	bic.w	r3, r3, #4096	@ 0x1000
 8003c0e:	81a3      	strh	r3, [r4, #12]
 8003c10:	4632      	mov	r2, r6
 8003c12:	463b      	mov	r3, r7
 8003c14:	4628      	mov	r0, r5
 8003c16:	e8bd 41f0 	ldmia.w	sp!, {r4, r5, r6, r7, r8, lr}
 8003c1a:	f000 b853 	b.w	8003cc4 <_write_r>

08003c1e <__sseek>:
 8003c1e:	b510      	push	{r4, lr}
 8003c20:	460c      	mov	r4, r1
 8003c22:	f9b1 100e 	ldrsh.w	r1, [r1, #14]
 8003c26:	f000 f829 	bl	8003c7c <_lseek_r>
 8003c2a:	1c43      	adds	r3, r0, #1
 8003c2c:	89a3      	ldrh	r3, [r4, #12]
 8003c2e:	bf15      	itete	ne
 8003c30:	6560      	strne	r0, [r4, #84]	@ 0x54
 8003c32:	f423 5380 	biceq.w	r3, r3, #4096	@ 0x1000
 8003c36:	f443 5380 	orrne.w	r3, r3, #4096	@ 0x1000
 8003c3a:	81a3      	strheq	r3, [r4, #12]
 8003c3c:	bf18      	it	ne
 8003c3e:	81a3      	strhne	r3, [r4, #12]
 8003c40:	bd10      	pop	{r4, pc}

08003c42 <__sclose>:
 8003c42:	f9b1 100e 	ldrsh.w	r1, [r1, #14]
 8003c46:	f000 b809 	b.w	8003c5c <_close_r>

08003c4a <memset>:
 8003c4a:	4402      	add	r2, r0
 8003c4c:	4603      	mov	r3, r0
 8003c4e:	4293      	cmp	r3, r2
 8003c50:	d100      	bne.n	8003c54 <memset+0xa>
 8003c52:	4770      	bx	lr
 8003c54:	f803 1b01 	strb.w	r1, [r3], #1
 8003c58:	e7f9      	b.n	8003c4e <memset+0x4>
	...

08003c5c <_close_r>:
 8003c5c:	b538      	push	{r3, r4, r5, lr}
 8003c5e:	4d06      	ldr	r5, [pc, #24]	@ (8003c78 <_close_r+0x1c>)
 8003c60:	2300      	movs	r3, #0
 8003c62:	4604      	mov	r4, r0
 8003c64:	4608      	mov	r0, r1
 8003c66:	602b      	str	r3, [r5, #0]
 8003c68:	f7fe f902 	bl	8001e70 <_close>
 8003c6c:	1c43      	adds	r3, r0, #1
 8003c6e:	d102      	bne.n	8003c76 <_close_r+0x1a>
 8003c70:	682b      	ldr	r3, [r5, #0]
 8003c72:	b103      	cbz	r3, 8003c76 <_close_r+0x1a>
 8003c74:	6023      	str	r3, [r4, #0]
 8003c76:	bd38      	pop	{r3, r4, r5, pc}
 8003c78:	20001e08 	.word	0x20001e08

08003c7c <_lseek_r>:
 8003c7c:	b538      	push	{r3, r4, r5, lr}
 8003c7e:	4d07      	ldr	r5, [pc, #28]	@ (8003c9c <_lseek_r+0x20>)
 8003c80:	4604      	mov	r4, r0
 8003c82:	4608      	mov	r0, r1
 8003c84:	4611      	mov	r1, r2
 8003c86:	2200      	movs	r2, #0
 8003c88:	602a      	str	r2, [r5, #0]
 8003c8a:	461a      	mov	r2, r3
 8003c8c:	f7fe f8fa 	bl	8001e84 <_lseek>
 8003c90:	1c43      	adds	r3, r0, #1
 8003c92:	d102      	bne.n	8003c9a <_lseek_r+0x1e>
 8003c94:	682b      	ldr	r3, [r5, #0]
 8003c96:	b103      	cbz	r3, 8003c9a <_lseek_r+0x1e>
 8003c98:	6023      	str	r3, [r4, #0]
 8003c9a:	bd38      	pop	{r3, r4, r5, pc}
 8003c9c:	20001e08 	.word	0x20001e08

08003ca0 <_read_r>:
 8003ca0:	b538      	push	{r3, r4, r5, lr}
 8003ca2:	4d07      	ldr	r5, [pc, #28]	@ (8003cc0 <_read_r+0x20>)
 8003ca4:	4604      	mov	r4, r0
 8003ca6:	4608      	mov	r0, r1
 8003ca8:	4611      	mov	r1, r2
 8003caa:	2200      	movs	r2, #0
 8003cac:	602a      	str	r2, [r5, #0]
 8003cae:	461a      	mov	r2, r3
 8003cb0:	f7fe f8c2 	bl	8001e38 <_read>
 8003cb4:	1c43      	adds	r3, r0, #1
 8003cb6:	d102      	bne.n	8003cbe <_read_r+0x1e>
 8003cb8:	682b      	ldr	r3, [r5, #0]
 8003cba:	b103      	cbz	r3, 8003cbe <_read_r+0x1e>
 8003cbc:	6023      	str	r3, [r4, #0]
 8003cbe:	bd38      	pop	{r3, r4, r5, pc}
 8003cc0:	20001e08 	.word	0x20001e08

08003cc4 <_write_r>:
 8003cc4:	b538      	push	{r3, r4, r5, lr}
 8003cc6:	4d07      	ldr	r5, [pc, #28]	@ (8003ce4 <_write_r+0x20>)
 8003cc8:	4604      	mov	r4, r0
 8003cca:	4608      	mov	r0, r1
 8003ccc:	4611      	mov	r1, r2
 8003cce:	2200      	movs	r2, #0
 8003cd0:	602a      	str	r2, [r5, #0]
 8003cd2:	461a      	mov	r2, r3
 8003cd4:	f7fe f8be 	bl	8001e54 <_write>
 8003cd8:	1c43      	adds	r3, r0, #1
 8003cda:	d102      	bne.n	8003ce2 <_write_r+0x1e>
 8003cdc:	682b      	ldr	r3, [r5, #0]
 8003cde:	b103      	cbz	r3, 8003ce2 <_write_r+0x1e>
 8003ce0:	6023      	str	r3, [r4, #0]
 8003ce2:	bd38      	pop	{r3, r4, r5, pc}
 8003ce4:	20001e08 	.word	0x20001e08

08003ce8 <__errno>:
 8003ce8:	4b01      	ldr	r3, [pc, #4]	@ (8003cf0 <__errno+0x8>)
 8003cea:	6818      	ldr	r0, [r3, #0]
 8003cec:	4770      	bx	lr
 8003cee:	bf00      	nop
 8003cf0:	20000038 	.word	0x20000038

08003cf4 <__libc_init_array>:
 8003cf4:	b570      	push	{r4, r5, r6, lr}
 8003cf6:	4d0d      	ldr	r5, [pc, #52]	@ (8003d2c <__libc_init_array+0x38>)
 8003cf8:	4c0d      	ldr	r4, [pc, #52]	@ (8003d30 <__libc_init_array+0x3c>)
 8003cfa:	1b64      	subs	r4, r4, r5
 8003cfc:	10a4      	asrs	r4, r4, #2
 8003cfe:	2600      	movs	r6, #0
 8003d00:	42a6      	cmp	r6, r4
 8003d02:	d109      	bne.n	8003d18 <__libc_init_array+0x24>
 8003d04:	4d0b      	ldr	r5, [pc, #44]	@ (8003d34 <__libc_init_array+0x40>)
 8003d06:	4c0c      	ldr	r4, [pc, #48]	@ (8003d38 <__libc_init_array+0x44>)
 8003d08:	f000 ffa2 	bl	8004c50 <_init>
 8003d0c:	1b64      	subs	r4, r4, r5
 8003d0e:	10a4      	asrs	r4, r4, #2
 8003d10:	2600      	movs	r6, #0
 8003d12:	42a6      	cmp	r6, r4
 8003d14:	d105      	bne.n	8003d22 <__libc_init_array+0x2e>
 8003d16:	bd70      	pop	{r4, r5, r6, pc}
 8003d18:	f855 3b04 	ldr.w	r3, [r5], #4
 8003d1c:	4798      	blx	r3
 8003d1e:	3601      	adds	r6, #1
 8003d20:	e7ee      	b.n	8003d00 <__libc_init_array+0xc>
 8003d22:	f855 3b04 	ldr.w	r3, [r5], #4
 8003d26:	4798      	blx	r3
 8003d28:	3601      	adds	r6, #1
 8003d2a:	e7f2      	b.n	8003d12 <__libc_init_array+0x1e>
 8003d2c:	08004d44 	.word	0x08004d44
 8003d30:	08004d44 	.word	0x08004d44
 8003d34:	08004d44 	.word	0x08004d44
 8003d38:	08004d48 	.word	0x08004d48

08003d3c <__retarget_lock_init_recursive>:
 8003d3c:	4770      	bx	lr

08003d3e <__retarget_lock_acquire_recursive>:
 8003d3e:	4770      	bx	lr

08003d40 <__retarget_lock_release_recursive>:
 8003d40:	4770      	bx	lr
	...

08003d44 <_free_r>:
 8003d44:	b538      	push	{r3, r4, r5, lr}
 8003d46:	4605      	mov	r5, r0
 8003d48:	2900      	cmp	r1, #0
 8003d4a:	d041      	beq.n	8003dd0 <_free_r+0x8c>
 8003d4c:	f851 3c04 	ldr.w	r3, [r1, #-4]
 8003d50:	1f0c      	subs	r4, r1, #4
 8003d52:	2b00      	cmp	r3, #0
 8003d54:	bfb8      	it	lt
 8003d56:	18e4      	addlt	r4, r4, r3
 8003d58:	f000 f8e0 	bl	8003f1c <__malloc_lock>
 8003d5c:	4a1d      	ldr	r2, [pc, #116]	@ (8003dd4 <_free_r+0x90>)
 8003d5e:	6813      	ldr	r3, [r2, #0]
 8003d60:	b933      	cbnz	r3, 8003d70 <_free_r+0x2c>
 8003d62:	6063      	str	r3, [r4, #4]
 8003d64:	6014      	str	r4, [r2, #0]
 8003d66:	4628      	mov	r0, r5
 8003d68:	e8bd 4038 	ldmia.w	sp!, {r3, r4, r5, lr}
 8003d6c:	f000 b8dc 	b.w	8003f28 <__malloc_unlock>
 8003d70:	42a3      	cmp	r3, r4
 8003d72:	d908      	bls.n	8003d86 <_free_r+0x42>
 8003d74:	6820      	ldr	r0, [r4, #0]
 8003d76:	1821      	adds	r1, r4, r0
 8003d78:	428b      	cmp	r3, r1
 8003d7a:	bf01      	itttt	eq
 8003d7c:	6819      	ldreq	r1, [r3, #0]
 8003d7e:	685b      	ldreq	r3, [r3, #4]
 8003d80:	1809      	addeq	r1, r1, r0
 8003d82:	6021      	streq	r1, [r4, #0]
 8003d84:	e7ed      	b.n	8003d62 <_free_r+0x1e>
 8003d86:	461a      	mov	r2, r3
 8003d88:	685b      	ldr	r3, [r3, #4]
 8003d8a:	b10b      	cbz	r3, 8003d90 <_free_r+0x4c>
 8003d8c:	42a3      	cmp	r3, r4
 8003d8e:	d9fa      	bls.n	8003d86 <_free_r+0x42>
 8003d90:	6811      	ldr	r1, [r2, #0]
 8003d92:	1850      	adds	r0, r2, r1
 8003d94:	42a0      	cmp	r0, r4
 8003d96:	d10b      	bne.n	8003db0 <_free_r+0x6c>
 8003d98:	6820      	ldr	r0, [r4, #0]
 8003d9a:	4401      	add	r1, r0
 8003d9c:	1850      	adds	r0, r2, r1
 8003d9e:	4283      	cmp	r3, r0
 8003da0:	6011      	str	r1, [r2, #0]
 8003da2:	d1e0      	bne.n	8003d66 <_free_r+0x22>
 8003da4:	6818      	ldr	r0, [r3, #0]
 8003da6:	685b      	ldr	r3, [r3, #4]
 8003da8:	6053      	str	r3, [r2, #4]
 8003daa:	4408      	add	r0, r1
 8003dac:	6010      	str	r0, [r2, #0]
 8003dae:	e7da      	b.n	8003d66 <_free_r+0x22>
 8003db0:	d902      	bls.n	8003db8 <_free_r+0x74>
 8003db2:	230c      	movs	r3, #12
 8003db4:	602b      	str	r3, [r5, #0]
 8003db6:	e7d6      	b.n	8003d66 <_free_r+0x22>
 8003db8:	6820      	ldr	r0, [r4, #0]
 8003dba:	1821      	adds	r1, r4, r0
 8003dbc:	428b      	cmp	r3, r1
 8003dbe:	bf04      	itt	eq
 8003dc0:	6819      	ldreq	r1, [r3, #0]
 8003dc2:	685b      	ldreq	r3, [r3, #4]
 8003dc4:	6063      	str	r3, [r4, #4]
 8003dc6:	bf04      	itt	eq
 8003dc8:	1809      	addeq	r1, r1, r0
 8003dca:	6021      	streq	r1, [r4, #0]
 8003dcc:	6054      	str	r4, [r2, #4]
 8003dce:	e7ca      	b.n	8003d66 <_free_r+0x22>
 8003dd0:	bd38      	pop	{r3, r4, r5, pc}
 8003dd2:	bf00      	nop
 8003dd4:	20001e14 	.word	0x20001e14

08003dd8 <sbrk_aligned>:
 8003dd8:	b570      	push	{r4, r5, r6, lr}
 8003dda:	4e0f      	ldr	r6, [pc, #60]	@ (8003e18 <sbrk_aligned+0x40>)
 8003ddc:	460c      	mov	r4, r1
 8003dde:	6831      	ldr	r1, [r6, #0]
 8003de0:	4605      	mov	r5, r0
 8003de2:	b911      	cbnz	r1, 8003dea <sbrk_aligned+0x12>
 8003de4:	f000 fe5c 	bl	8004aa0 <_sbrk_r>
 8003de8:	6030      	str	r0, [r6, #0]
 8003dea:	4621      	mov	r1, r4
 8003dec:	4628      	mov	r0, r5
 8003dee:	f000 fe57 	bl	8004aa0 <_sbrk_r>
 8003df2:	1c43      	adds	r3, r0, #1
 8003df4:	d103      	bne.n	8003dfe <sbrk_aligned+0x26>
 8003df6:	f04f 34ff 	mov.w	r4, #4294967295	@ 0xffffffff
 8003dfa:	4620      	mov	r0, r4
 8003dfc:	bd70      	pop	{r4, r5, r6, pc}
 8003dfe:	1cc4      	adds	r4, r0, #3
 8003e00:	f024 0403 	bic.w	r4, r4, #3
 8003e04:	42a0      	cmp	r0, r4
 8003e06:	d0f8      	beq.n	8003dfa <sbrk_aligned+0x22>
 8003e08:	1a21      	subs	r1, r4, r0
 8003e0a:	4628      	mov	r0, r5
 8003e0c:	f000 fe48 	bl	8004aa0 <_sbrk_r>
 8003e10:	3001      	adds	r0, #1
 8003e12:	d1f2      	bne.n	8003dfa <sbrk_aligned+0x22>
 8003e14:	e7ef      	b.n	8003df6 <sbrk_aligned+0x1e>
 8003e16:	bf00      	nop
 8003e18:	20001e10 	.word	0x20001e10

08003e1c <_malloc_r>:
 8003e1c:	e92d 43f8 	stmdb	sp!, {r3, r4, r5, r6, r7, r8, r9, lr}
 8003e20:	1ccd      	adds	r5, r1, #3
 8003e22:	f025 0503 	bic.w	r5, r5, #3
 8003e26:	3508      	adds	r5, #8
 8003e28:	2d0c      	cmp	r5, #12
 8003e2a:	bf38      	it	cc
 8003e2c:	250c      	movcc	r5, #12
 8003e2e:	2d00      	cmp	r5, #0
 8003e30:	4606      	mov	r6, r0
 8003e32:	db01      	blt.n	8003e38 <_malloc_r+0x1c>
 8003e34:	42a9      	cmp	r1, r5
 8003e36:	d904      	bls.n	8003e42 <_malloc_r+0x26>
 8003e38:	230c      	movs	r3, #12
 8003e3a:	6033      	str	r3, [r6, #0]
 8003e3c:	2000      	movs	r0, #0
 8003e3e:	e8bd 83f8 	ldmia.w	sp!, {r3, r4, r5, r6, r7, r8, r9, pc}
 8003e42:	f8df 80d4 	ldr.w	r8, [pc, #212]	@ 8003f18 <_malloc_r+0xfc>
 8003e46:	f000 f869 	bl	8003f1c <__malloc_lock>
 8003e4a:	f8d8 3000 	ldr.w	r3, [r8]
 8003e4e:	461c      	mov	r4, r3
 8003e50:	bb44      	cbnz	r4, 8003ea4 <_malloc_r+0x88>
 8003e52:	4629      	mov	r1, r5
 8003e54:	4630      	mov	r0, r6
 8003e56:	f7ff ffbf 	bl	8003dd8 <sbrk_aligned>
 8003e5a:	1c43      	adds	r3, r0, #1
 8003e5c:	4604      	mov	r4, r0
 8003e5e:	d158      	bne.n	8003f12 <_malloc_r+0xf6>
 8003e60:	f8d8 4000 	ldr.w	r4, [r8]
 8003e64:	4627      	mov	r7, r4
 8003e66:	2f00      	cmp	r7, #0
 8003e68:	d143      	bne.n	8003ef2 <_malloc_r+0xd6>
 8003e6a:	2c00      	cmp	r4, #0
 8003e6c:	d04b      	beq.n	8003f06 <_malloc_r+0xea>
 8003e6e:	6823      	ldr	r3, [r4, #0]
 8003e70:	4639      	mov	r1, r7
 8003e72:	4630      	mov	r0, r6
 8003e74:	eb04 0903 	add.w	r9, r4, r3
 8003e78:	f000 fe12 	bl	8004aa0 <_sbrk_r>
 8003e7c:	4581      	cmp	r9, r0
 8003e7e:	d142      	bne.n	8003f06 <_malloc_r+0xea>
 8003e80:	6821      	ldr	r1, [r4, #0]
 8003e82:	1a6d      	subs	r5, r5, r1
 8003e84:	4629      	mov	r1, r5
 8003e86:	4630      	mov	r0, r6
 8003e88:	f7ff ffa6 	bl	8003dd8 <sbrk_aligned>
 8003e8c:	3001      	adds	r0, #1
 8003e8e:	d03a      	beq.n	8003f06 <_malloc_r+0xea>
 8003e90:	6823      	ldr	r3, [r4, #0]
 8003e92:	442b      	add	r3, r5
 8003e94:	6023      	str	r3, [r4, #0]
 8003e96:	f8d8 3000 	ldr.w	r3, [r8]
 8003e9a:	685a      	ldr	r2, [r3, #4]
 8003e9c:	bb62      	cbnz	r2, 8003ef8 <_malloc_r+0xdc>
 8003e9e:	f8c8 7000 	str.w	r7, [r8]
 8003ea2:	e00f      	b.n	8003ec4 <_malloc_r+0xa8>
 8003ea4:	6822      	ldr	r2, [r4, #0]
 8003ea6:	1b52      	subs	r2, r2, r5
 8003ea8:	d420      	bmi.n	8003eec <_malloc_r+0xd0>
 8003eaa:	2a0b      	cmp	r2, #11
 8003eac:	d917      	bls.n	8003ede <_malloc_r+0xc2>
 8003eae:	1961      	adds	r1, r4, r5
 8003eb0:	42a3      	cmp	r3, r4
 8003eb2:	6025      	str	r5, [r4, #0]
 8003eb4:	bf18      	it	ne
 8003eb6:	6059      	strne	r1, [r3, #4]
 8003eb8:	6863      	ldr	r3, [r4, #4]
 8003eba:	bf08      	it	eq
 8003ebc:	f8c8 1000 	streq.w	r1, [r8]
 8003ec0:	5162      	str	r2, [r4, r5]
 8003ec2:	604b      	str	r3, [r1, #4]
 8003ec4:	4630      	mov	r0, r6
 8003ec6:	f000 f82f 	bl	8003f28 <__malloc_unlock>
 8003eca:	f104 000b 	add.w	r0, r4, #11
 8003ece:	1d23      	adds	r3, r4, #4
 8003ed0:	f020 0007 	bic.w	r0, r0, #7
 8003ed4:	1ac2      	subs	r2, r0, r3
 8003ed6:	bf1c      	itt	ne
 8003ed8:	1a1b      	subne	r3, r3, r0
 8003eda:	50a3      	strne	r3, [r4, r2]
 8003edc:	e7af      	b.n	8003e3e <_malloc_r+0x22>
 8003ede:	6862      	ldr	r2, [r4, #4]
 8003ee0:	42a3      	cmp	r3, r4
 8003ee2:	bf0c      	ite	eq
 8003ee4:	f8c8 2000 	streq.w	r2, [r8]
 8003ee8:	605a      	strne	r2, [r3, #4]
 8003eea:	e7eb      	b.n	8003ec4 <_malloc_r+0xa8>
 8003eec:	4623      	mov	r3, r4
 8003eee:	6864      	ldr	r4, [r4, #4]
 8003ef0:	e7ae      	b.n	8003e50 <_malloc_r+0x34>
 8003ef2:	463c      	mov	r4, r7
 8003ef4:	687f      	ldr	r7, [r7, #4]
 8003ef6:	e7b6      	b.n	8003e66 <_malloc_r+0x4a>
 8003ef8:	461a      	mov	r2, r3
 8003efa:	685b      	ldr	r3, [r3, #4]
 8003efc:	42a3      	cmp	r3, r4
 8003efe:	d1fb      	bne.n	8003ef8 <_malloc_r+0xdc>
 8003f00:	2300      	movs	r3, #0
 8003f02:	6053      	str	r3, [r2, #4]
 8003f04:	e7de      	b.n	8003ec4 <_malloc_r+0xa8>
 8003f06:	230c      	movs	r3, #12
 8003f08:	6033      	str	r3, [r6, #0]
 8003f0a:	4630      	mov	r0, r6
 8003f0c:	f000 f80c 	bl	8003f28 <__malloc_unlock>
 8003f10:	e794      	b.n	8003e3c <_malloc_r+0x20>
 8003f12:	6005      	str	r5, [r0, #0]
 8003f14:	e7d6      	b.n	8003ec4 <_malloc_r+0xa8>
 8003f16:	bf00      	nop
 8003f18:	20001e14 	.word	0x20001e14

08003f1c <__malloc_lock>:
 8003f1c:	4801      	ldr	r0, [pc, #4]	@ (8003f24 <__malloc_lock+0x8>)
 8003f1e:	f7ff bf0e 	b.w	8003d3e <__retarget_lock_acquire_recursive>
 8003f22:	bf00      	nop
 8003f24:	20001e0c 	.word	0x20001e0c

08003f28 <__malloc_unlock>:
 8003f28:	4801      	ldr	r0, [pc, #4]	@ (8003f30 <__malloc_unlock+0x8>)
 8003f2a:	f7ff bf09 	b.w	8003d40 <__retarget_lock_release_recursive>
 8003f2e:	bf00      	nop
 8003f30:	20001e0c 	.word	0x20001e0c

08003f34 <__ssputs_r>:
 8003f34:	e92d 47f0 	stmdb	sp!, {r4, r5, r6, r7, r8, r9, sl, lr}
 8003f38:	688e      	ldr	r6, [r1, #8]
 8003f3a:	461f      	mov	r7, r3
 8003f3c:	42be      	cmp	r6, r7
 8003f3e:	680b      	ldr	r3, [r1, #0]
 8003f40:	4682      	mov	sl, r0
 8003f42:	460c      	mov	r4, r1
 8003f44:	4690      	mov	r8, r2
 8003f46:	d82d      	bhi.n	8003fa4 <__ssputs_r+0x70>
 8003f48:	f9b1 200c 	ldrsh.w	r2, [r1, #12]
 8003f4c:	f412 6f90 	tst.w	r2, #1152	@ 0x480
 8003f50:	d026      	beq.n	8003fa0 <__ssputs_r+0x6c>
 8003f52:	6965      	ldr	r5, [r4, #20]
 8003f54:	6909      	ldr	r1, [r1, #16]
 8003f56:	eb05 0545 	add.w	r5, r5, r5, lsl #1
 8003f5a:	eba3 0901 	sub.w	r9, r3, r1
 8003f5e:	eb05 75d5 	add.w	r5, r5, r5, lsr #31
 8003f62:	1c7b      	adds	r3, r7, #1
 8003f64:	444b      	add	r3, r9
 8003f66:	106d      	asrs	r5, r5, #1
 8003f68:	429d      	cmp	r5, r3
 8003f6a:	bf38      	it	cc
 8003f6c:	461d      	movcc	r5, r3
 8003f6e:	0553      	lsls	r3, r2, #21
 8003f70:	d527      	bpl.n	8003fc2 <__ssputs_r+0x8e>
 8003f72:	4629      	mov	r1, r5
 8003f74:	f7ff ff52 	bl	8003e1c <_malloc_r>
 8003f78:	4606      	mov	r6, r0
 8003f7a:	b360      	cbz	r0, 8003fd6 <__ssputs_r+0xa2>
 8003f7c:	6921      	ldr	r1, [r4, #16]
 8003f7e:	464a      	mov	r2, r9
 8003f80:	f000 fd9e 	bl	8004ac0 <memcpy>
 8003f84:	89a3      	ldrh	r3, [r4, #12]
 8003f86:	f423 6390 	bic.w	r3, r3, #1152	@ 0x480
 8003f8a:	f043 0380 	orr.w	r3, r3, #128	@ 0x80
 8003f8e:	81a3      	strh	r3, [r4, #12]
 8003f90:	6126      	str	r6, [r4, #16]
 8003f92:	6165      	str	r5, [r4, #20]
 8003f94:	444e      	add	r6, r9
 8003f96:	eba5 0509 	sub.w	r5, r5, r9
 8003f9a:	6026      	str	r6, [r4, #0]
 8003f9c:	60a5      	str	r5, [r4, #8]
 8003f9e:	463e      	mov	r6, r7
 8003fa0:	42be      	cmp	r6, r7
 8003fa2:	d900      	bls.n	8003fa6 <__ssputs_r+0x72>
 8003fa4:	463e      	mov	r6, r7
 8003fa6:	6820      	ldr	r0, [r4, #0]
 8003fa8:	4632      	mov	r2, r6
 8003faa:	4641      	mov	r1, r8
 8003fac:	f000 fd5e 	bl	8004a6c <memmove>
 8003fb0:	68a3      	ldr	r3, [r4, #8]
 8003fb2:	1b9b      	subs	r3, r3, r6
 8003fb4:	60a3      	str	r3, [r4, #8]
 8003fb6:	6823      	ldr	r3, [r4, #0]
 8003fb8:	4433      	add	r3, r6
 8003fba:	6023      	str	r3, [r4, #0]
 8003fbc:	2000      	movs	r0, #0
 8003fbe:	e8bd 87f0 	ldmia.w	sp!, {r4, r5, r6, r7, r8, r9, sl, pc}
 8003fc2:	462a      	mov	r2, r5
 8003fc4:	f000 fd8a 	bl	8004adc <_realloc_r>
 8003fc8:	4606      	mov	r6, r0
 8003fca:	2800      	cmp	r0, #0
 8003fcc:	d1e0      	bne.n	8003f90 <__ssputs_r+0x5c>
 8003fce:	6921      	ldr	r1, [r4, #16]
 8003fd0:	4650      	mov	r0, sl
 8003fd2:	f7ff feb7 	bl	8003d44 <_free_r>
 8003fd6:	230c      	movs	r3, #12
 8003fd8:	f8ca 3000 	str.w	r3, [sl]
 8003fdc:	89a3      	ldrh	r3, [r4, #12]
 8003fde:	f043 0340 	orr.w	r3, r3, #64	@ 0x40
 8003fe2:	81a3      	strh	r3, [r4, #12]
 8003fe4:	f04f 30ff 	mov.w	r0, #4294967295	@ 0xffffffff
 8003fe8:	e7e9      	b.n	8003fbe <__ssputs_r+0x8a>
	...

08003fec <_svfiprintf_r>:
 8003fec:	e92d 4ff0 	stmdb	sp!, {r4, r5, r6, r7, r8, r9, sl, fp, lr}
 8003ff0:	4698      	mov	r8, r3
 8003ff2:	898b      	ldrh	r3, [r1, #12]
 8003ff4:	061b      	lsls	r3, r3, #24
 8003ff6:	b09d      	sub	sp, #116	@ 0x74
 8003ff8:	4607      	mov	r7, r0
 8003ffa:	460d      	mov	r5, r1
 8003ffc:	4614      	mov	r4, r2
 8003ffe:	d510      	bpl.n	8004022 <_svfiprintf_r+0x36>
 8004000:	690b      	ldr	r3, [r1, #16]
 8004002:	b973      	cbnz	r3, 8004022 <_svfiprintf_r+0x36>
 8004004:	2140      	movs	r1, #64	@ 0x40
 8004006:	f7ff ff09 	bl	8003e1c <_malloc_r>
 800400a:	6028      	str	r0, [r5, #0]
 800400c:	6128      	str	r0, [r5, #16]
 800400e:	b930      	cbnz	r0, 800401e <_svfiprintf_r+0x32>
 8004010:	230c      	movs	r3, #12
 8004012:	603b      	str	r3, [r7, #0]
 8004014:	f04f 30ff 	mov.w	r0, #4294967295	@ 0xffffffff
 8004018:	b01d      	add	sp, #116	@ 0x74
 800401a:	e8bd 8ff0 	ldmia.w	sp!, {r4, r5, r6, r7, r8, r9, sl, fp, pc}
 800401e:	2340      	movs	r3, #64	@ 0x40
 8004020:	616b      	str	r3, [r5, #20]
 8004022:	2300      	movs	r3, #0
 8004024:	9309      	str	r3, [sp, #36]	@ 0x24
 8004026:	2320      	movs	r3, #32
 8004028:	f88d 3029 	strb.w	r3, [sp, #41]	@ 0x29
 800402c:	f8cd 800c 	str.w	r8, [sp, #12]
 8004030:	2330      	movs	r3, #48	@ 0x30
 8004032:	f8df 819c 	ldr.w	r8, [pc, #412]	@ 80041d0 <_svfiprintf_r+0x1e4>
 8004036:	f88d 302a 	strb.w	r3, [sp, #42]	@ 0x2a
 800403a:	f04f 0901 	mov.w	r9, #1
 800403e:	4623      	mov	r3, r4
 8004040:	469a      	mov	sl, r3
 8004042:	f813 2b01 	ldrb.w	r2, [r3], #1
 8004046:	b10a      	cbz	r2, 800404c <_svfiprintf_r+0x60>
 8004048:	2a25      	cmp	r2, #37	@ 0x25
 800404a:	d1f9      	bne.n	8004040 <_svfiprintf_r+0x54>
 800404c:	ebba 0b04 	subs.w	fp, sl, r4
 8004050:	d00b      	beq.n	800406a <_svfiprintf_r+0x7e>
 8004052:	465b      	mov	r3, fp
 8004054:	4622      	mov	r2, r4
 8004056:	4629      	mov	r1, r5
 8004058:	4638      	mov	r0, r7
 800405a:	f7ff ff6b 	bl	8003f34 <__ssputs_r>
 800405e:	3001      	adds	r0, #1
 8004060:	f000 80a7 	beq.w	80041b2 <_svfiprintf_r+0x1c6>
 8004064:	9a09      	ldr	r2, [sp, #36]	@ 0x24
 8004066:	445a      	add	r2, fp
 8004068:	9209      	str	r2, [sp, #36]	@ 0x24
 800406a:	f89a 3000 	ldrb.w	r3, [sl]
 800406e:	2b00      	cmp	r3, #0
 8004070:	f000 809f 	beq.w	80041b2 <_svfiprintf_r+0x1c6>
 8004074:	2300      	movs	r3, #0
 8004076:	f04f 32ff 	mov.w	r2, #4294967295	@ 0xffffffff
 800407a:	e9cd 2305 	strd	r2, r3, [sp, #20]
 800407e:	f10a 0a01 	add.w	sl, sl, #1
 8004082:	9304      	str	r3, [sp, #16]
 8004084:	9307      	str	r3, [sp, #28]
 8004086:	f88d 3053 	strb.w	r3, [sp, #83]	@ 0x53
 800408a:	931a      	str	r3, [sp, #104]	@ 0x68
 800408c:	4654      	mov	r4, sl
 800408e:	2205      	movs	r2, #5
 8004090:	f814 1b01 	ldrb.w	r1, [r4], #1
 8004094:	484e      	ldr	r0, [pc, #312]	@ (80041d0 <_svfiprintf_r+0x1e4>)
 8004096:	f7fc f8bb 	bl	8000210 <memchr>
 800409a:	9a04      	ldr	r2, [sp, #16]
 800409c:	b9d8      	cbnz	r0, 80040d6 <_svfiprintf_r+0xea>
 800409e:	06d0      	lsls	r0, r2, #27
 80040a0:	bf44      	itt	mi
 80040a2:	2320      	movmi	r3, #32
 80040a4:	f88d 3053 	strbmi.w	r3, [sp, #83]	@ 0x53
 80040a8:	0711      	lsls	r1, r2, #28
 80040aa:	bf44      	itt	mi
 80040ac:	232b      	movmi	r3, #43	@ 0x2b
 80040ae:	f88d 3053 	strbmi.w	r3, [sp, #83]	@ 0x53
 80040b2:	f89a 3000 	ldrb.w	r3, [sl]
 80040b6:	2b2a      	cmp	r3, #42	@ 0x2a
 80040b8:	d015      	beq.n	80040e6 <_svfiprintf_r+0xfa>
 80040ba:	9a07      	ldr	r2, [sp, #28]
 80040bc:	4654      	mov	r4, sl
 80040be:	2000      	movs	r0, #0
 80040c0:	f04f 0c0a 	mov.w	ip, #10
 80040c4:	4621      	mov	r1, r4
 80040c6:	f811 3b01 	ldrb.w	r3, [r1], #1
 80040ca:	3b30      	subs	r3, #48	@ 0x30
 80040cc:	2b09      	cmp	r3, #9
 80040ce:	d94b      	bls.n	8004168 <_svfiprintf_r+0x17c>
 80040d0:	b1b0      	cbz	r0, 8004100 <_svfiprintf_r+0x114>
 80040d2:	9207      	str	r2, [sp, #28]
 80040d4:	e014      	b.n	8004100 <_svfiprintf_r+0x114>
 80040d6:	eba0 0308 	sub.w	r3, r0, r8
 80040da:	fa09 f303 	lsl.w	r3, r9, r3
 80040de:	4313      	orrs	r3, r2
 80040e0:	9304      	str	r3, [sp, #16]
 80040e2:	46a2      	mov	sl, r4
 80040e4:	e7d2      	b.n	800408c <_svfiprintf_r+0xa0>
 80040e6:	9b03      	ldr	r3, [sp, #12]
 80040e8:	1d19      	adds	r1, r3, #4
 80040ea:	681b      	ldr	r3, [r3, #0]
 80040ec:	9103      	str	r1, [sp, #12]
 80040ee:	2b00      	cmp	r3, #0
 80040f0:	bfbb      	ittet	lt
 80040f2:	425b      	neglt	r3, r3
 80040f4:	f042 0202 	orrlt.w	r2, r2, #2
 80040f8:	9307      	strge	r3, [sp, #28]
 80040fa:	9307      	strlt	r3, [sp, #28]
 80040fc:	bfb8      	it	lt
 80040fe:	9204      	strlt	r2, [sp, #16]
 8004100:	7823      	ldrb	r3, [r4, #0]
 8004102:	2b2e      	cmp	r3, #46	@ 0x2e
 8004104:	d10a      	bne.n	800411c <_svfiprintf_r+0x130>
 8004106:	7863      	ldrb	r3, [r4, #1]
 8004108:	2b2a      	cmp	r3, #42	@ 0x2a
 800410a:	d132      	bne.n	8004172 <_svfiprintf_r+0x186>
 800410c:	9b03      	ldr	r3, [sp, #12]
 800410e:	1d1a      	adds	r2, r3, #4
 8004110:	681b      	ldr	r3, [r3, #0]
 8004112:	9203      	str	r2, [sp, #12]
 8004114:	ea43 73e3 	orr.w	r3, r3, r3, asr #31
 8004118:	3402      	adds	r4, #2
 800411a:	9305      	str	r3, [sp, #20]
 800411c:	f8df a0c0 	ldr.w	sl, [pc, #192]	@ 80041e0 <_svfiprintf_r+0x1f4>
 8004120:	7821      	ldrb	r1, [r4, #0]
 8004122:	2203      	movs	r2, #3
 8004124:	4650      	mov	r0, sl
 8004126:	f7fc f873 	bl	8000210 <memchr>
 800412a:	b138      	cbz	r0, 800413c <_svfiprintf_r+0x150>
 800412c:	9b04      	ldr	r3, [sp, #16]
 800412e:	eba0 000a 	sub.w	r0, r0, sl
 8004132:	2240      	movs	r2, #64	@ 0x40
 8004134:	4082      	lsls	r2, r0
 8004136:	4313      	orrs	r3, r2
 8004138:	3401      	adds	r4, #1
 800413a:	9304      	str	r3, [sp, #16]
 800413c:	f814 1b01 	ldrb.w	r1, [r4], #1
 8004140:	4824      	ldr	r0, [pc, #144]	@ (80041d4 <_svfiprintf_r+0x1e8>)
 8004142:	f88d 1028 	strb.w	r1, [sp, #40]	@ 0x28
 8004146:	2206      	movs	r2, #6
 8004148:	f7fc f862 	bl	8000210 <memchr>
 800414c:	2800      	cmp	r0, #0
 800414e:	d036      	beq.n	80041be <_svfiprintf_r+0x1d2>
 8004150:	4b21      	ldr	r3, [pc, #132]	@ (80041d8 <_svfiprintf_r+0x1ec>)
 8004152:	bb1b      	cbnz	r3, 800419c <_svfiprintf_r+0x1b0>
 8004154:	9b03      	ldr	r3, [sp, #12]
 8004156:	3307      	adds	r3, #7
 8004158:	f023 0307 	bic.w	r3, r3, #7
 800415c:	3308      	adds	r3, #8
 800415e:	9303      	str	r3, [sp, #12]
 8004160:	9b09      	ldr	r3, [sp, #36]	@ 0x24
 8004162:	4433      	add	r3, r6
 8004164:	9309      	str	r3, [sp, #36]	@ 0x24
 8004166:	e76a      	b.n	800403e <_svfiprintf_r+0x52>
 8004168:	fb0c 3202 	mla	r2, ip, r2, r3
 800416c:	460c      	mov	r4, r1
 800416e:	2001      	movs	r0, #1
 8004170:	e7a8      	b.n	80040c4 <_svfiprintf_r+0xd8>
 8004172:	2300      	movs	r3, #0
 8004174:	3401      	adds	r4, #1
 8004176:	9305      	str	r3, [sp, #20]
 8004178:	4619      	mov	r1, r3
 800417a:	f04f 0c0a 	mov.w	ip, #10
 800417e:	4620      	mov	r0, r4
 8004180:	f810 2b01 	ldrb.w	r2, [r0], #1
 8004184:	3a30      	subs	r2, #48	@ 0x30
 8004186:	2a09      	cmp	r2, #9
 8004188:	d903      	bls.n	8004192 <_svfiprintf_r+0x1a6>
 800418a:	2b00      	cmp	r3, #0
 800418c:	d0c6      	beq.n	800411c <_svfiprintf_r+0x130>
 800418e:	9105      	str	r1, [sp, #20]
 8004190:	e7c4      	b.n	800411c <_svfiprintf_r+0x130>
 8004192:	fb0c 2101 	mla	r1, ip, r1, r2
 8004196:	4604      	mov	r4, r0
 8004198:	2301      	movs	r3, #1
 800419a:	e7f0      	b.n	800417e <_svfiprintf_r+0x192>
 800419c:	ab03      	add	r3, sp, #12
 800419e:	9300      	str	r3, [sp, #0]
 80041a0:	462a      	mov	r2, r5
 80041a2:	4b0e      	ldr	r3, [pc, #56]	@ (80041dc <_svfiprintf_r+0x1f0>)
 80041a4:	a904      	add	r1, sp, #16
 80041a6:	4638      	mov	r0, r7
 80041a8:	f3af 8000 	nop.w
 80041ac:	1c42      	adds	r2, r0, #1
 80041ae:	4606      	mov	r6, r0
 80041b0:	d1d6      	bne.n	8004160 <_svfiprintf_r+0x174>
 80041b2:	89ab      	ldrh	r3, [r5, #12]
 80041b4:	065b      	lsls	r3, r3, #25
 80041b6:	f53f af2d 	bmi.w	8004014 <_svfiprintf_r+0x28>
 80041ba:	9809      	ldr	r0, [sp, #36]	@ 0x24
 80041bc:	e72c      	b.n	8004018 <_svfiprintf_r+0x2c>
 80041be:	ab03      	add	r3, sp, #12
 80041c0:	9300      	str	r3, [sp, #0]
 80041c2:	462a      	mov	r2, r5
 80041c4:	4b05      	ldr	r3, [pc, #20]	@ (80041dc <_svfiprintf_r+0x1f0>)
 80041c6:	a904      	add	r1, sp, #16
 80041c8:	4638      	mov	r0, r7
 80041ca:	f000 f9bb 	bl	8004544 <_printf_i>
 80041ce:	e7ed      	b.n	80041ac <_svfiprintf_r+0x1c0>
 80041d0:	08004d08 	.word	0x08004d08
 80041d4:	08004d12 	.word	0x08004d12
 80041d8:	00000000 	.word	0x00000000
 80041dc:	08003f35 	.word	0x08003f35
 80041e0:	08004d0e 	.word	0x08004d0e

080041e4 <__sfputc_r>:
 80041e4:	6893      	ldr	r3, [r2, #8]
 80041e6:	3b01      	subs	r3, #1
 80041e8:	2b00      	cmp	r3, #0
 80041ea:	b410      	push	{r4}
 80041ec:	6093      	str	r3, [r2, #8]
 80041ee:	da08      	bge.n	8004202 <__sfputc_r+0x1e>
 80041f0:	6994      	ldr	r4, [r2, #24]
 80041f2:	42a3      	cmp	r3, r4
 80041f4:	db01      	blt.n	80041fa <__sfputc_r+0x16>
 80041f6:	290a      	cmp	r1, #10
 80041f8:	d103      	bne.n	8004202 <__sfputc_r+0x1e>
 80041fa:	f85d 4b04 	ldr.w	r4, [sp], #4
 80041fe:	f000 bba1 	b.w	8004944 <__swbuf_r>
 8004202:	6813      	ldr	r3, [r2, #0]
 8004204:	1c58      	adds	r0, r3, #1
 8004206:	6010      	str	r0, [r2, #0]
 8004208:	7019      	strb	r1, [r3, #0]
 800420a:	4608      	mov	r0, r1
 800420c:	f85d 4b04 	ldr.w	r4, [sp], #4
 8004210:	4770      	bx	lr

08004212 <__sfputs_r>:
 8004212:	b5f8      	push	{r3, r4, r5, r6, r7, lr}
 8004214:	4606      	mov	r6, r0
 8004216:	460f      	mov	r7, r1
 8004218:	4614      	mov	r4, r2
 800421a:	18d5      	adds	r5, r2, r3
 800421c:	42ac      	cmp	r4, r5
 800421e:	d101      	bne.n	8004224 <__sfputs_r+0x12>
 8004220:	2000      	movs	r0, #0
 8004222:	e007      	b.n	8004234 <__sfputs_r+0x22>
 8004224:	f814 1b01 	ldrb.w	r1, [r4], #1
 8004228:	463a      	mov	r2, r7
 800422a:	4630      	mov	r0, r6
 800422c:	f7ff ffda 	bl	80041e4 <__sfputc_r>
 8004230:	1c43      	adds	r3, r0, #1
 8004232:	d1f3      	bne.n	800421c <__sfputs_r+0xa>
 8004234:	bdf8      	pop	{r3, r4, r5, r6, r7, pc}
	...

08004238 <_vfiprintf_r>:
 8004238:	e92d 4ff0 	stmdb	sp!, {r4, r5, r6, r7, r8, r9, sl, fp, lr}
 800423c:	460d      	mov	r5, r1
 800423e:	b09d      	sub	sp, #116	@ 0x74
 8004240:	4614      	mov	r4, r2
 8004242:	4698      	mov	r8, r3
 8004244:	4606      	mov	r6, r0
 8004246:	b118      	cbz	r0, 8004250 <_vfiprintf_r+0x18>
 8004248:	6a03      	ldr	r3, [r0, #32]
 800424a:	b90b      	cbnz	r3, 8004250 <_vfiprintf_r+0x18>
 800424c:	f7ff fc4a 	bl	8003ae4 <__sinit>
 8004250:	6e6b      	ldr	r3, [r5, #100]	@ 0x64
 8004252:	07d9      	lsls	r1, r3, #31
 8004254:	d405      	bmi.n	8004262 <_vfiprintf_r+0x2a>
 8004256:	89ab      	ldrh	r3, [r5, #12]
 8004258:	059a      	lsls	r2, r3, #22
 800425a:	d402      	bmi.n	8004262 <_vfiprintf_r+0x2a>
 800425c:	6da8      	ldr	r0, [r5, #88]	@ 0x58
 800425e:	f7ff fd6e 	bl	8003d3e <__retarget_lock_acquire_recursive>
 8004262:	89ab      	ldrh	r3, [r5, #12]
 8004264:	071b      	lsls	r3, r3, #28
 8004266:	d501      	bpl.n	800426c <_vfiprintf_r+0x34>
 8004268:	692b      	ldr	r3, [r5, #16]
 800426a:	b99b      	cbnz	r3, 8004294 <_vfiprintf_r+0x5c>
 800426c:	4629      	mov	r1, r5
 800426e:	4630      	mov	r0, r6
 8004270:	f000 fba6 	bl	80049c0 <__swsetup_r>
 8004274:	b170      	cbz	r0, 8004294 <_vfiprintf_r+0x5c>
 8004276:	6e6b      	ldr	r3, [r5, #100]	@ 0x64
 8004278:	07dc      	lsls	r4, r3, #31
 800427a:	d504      	bpl.n	8004286 <_vfiprintf_r+0x4e>
 800427c:	f04f 30ff 	mov.w	r0, #4294967295	@ 0xffffffff
 8004280:	b01d      	add	sp, #116	@ 0x74
 8004282:	e8bd 8ff0 	ldmia.w	sp!, {r4, r5, r6, r7, r8, r9, sl, fp, pc}
 8004286:	89ab      	ldrh	r3, [r5, #12]
 8004288:	0598      	lsls	r0, r3, #22
 800428a:	d4f7      	bmi.n	800427c <_vfiprintf_r+0x44>
 800428c:	6da8      	ldr	r0, [r5, #88]	@ 0x58
 800428e:	f7ff fd57 	bl	8003d40 <__retarget_lock_release_recursive>
 8004292:	e7f3      	b.n	800427c <_vfiprintf_r+0x44>
 8004294:	2300      	movs	r3, #0
 8004296:	9309      	str	r3, [sp, #36]	@ 0x24
 8004298:	2320      	movs	r3, #32
 800429a:	f88d 3029 	strb.w	r3, [sp, #41]	@ 0x29
 800429e:	f8cd 800c 	str.w	r8, [sp, #12]
 80042a2:	2330      	movs	r3, #48	@ 0x30
 80042a4:	f8df 81ac 	ldr.w	r8, [pc, #428]	@ 8004454 <_vfiprintf_r+0x21c>
 80042a8:	f88d 302a 	strb.w	r3, [sp, #42]	@ 0x2a
 80042ac:	f04f 0901 	mov.w	r9, #1
 80042b0:	4623      	mov	r3, r4
 80042b2:	469a      	mov	sl, r3
 80042b4:	f813 2b01 	ldrb.w	r2, [r3], #1
 80042b8:	b10a      	cbz	r2, 80042be <_vfiprintf_r+0x86>
 80042ba:	2a25      	cmp	r2, #37	@ 0x25
 80042bc:	d1f9      	bne.n	80042b2 <_vfiprintf_r+0x7a>
 80042be:	ebba 0b04 	subs.w	fp, sl, r4
 80042c2:	d00b      	beq.n	80042dc <_vfiprintf_r+0xa4>
 80042c4:	465b      	mov	r3, fp
 80042c6:	4622      	mov	r2, r4
 80042c8:	4629      	mov	r1, r5
 80042ca:	4630      	mov	r0, r6
 80042cc:	f7ff ffa1 	bl	8004212 <__sfputs_r>
 80042d0:	3001      	adds	r0, #1
 80042d2:	f000 80a7 	beq.w	8004424 <_vfiprintf_r+0x1ec>
 80042d6:	9a09      	ldr	r2, [sp, #36]	@ 0x24
 80042d8:	445a      	add	r2, fp
 80042da:	9209      	str	r2, [sp, #36]	@ 0x24
 80042dc:	f89a 3000 	ldrb.w	r3, [sl]
 80042e0:	2b00      	cmp	r3, #0
 80042e2:	f000 809f 	beq.w	8004424 <_vfiprintf_r+0x1ec>
 80042e6:	2300      	movs	r3, #0
 80042e8:	f04f 32ff 	mov.w	r2, #4294967295	@ 0xffffffff
 80042ec:	e9cd 2305 	strd	r2, r3, [sp, #20]
 80042f0:	f10a 0a01 	add.w	sl, sl, #1
 80042f4:	9304      	str	r3, [sp, #16]
 80042f6:	9307      	str	r3, [sp, #28]
 80042f8:	f88d 3053 	strb.w	r3, [sp, #83]	@ 0x53
 80042fc:	931a      	str	r3, [sp, #104]	@ 0x68
 80042fe:	4654      	mov	r4, sl
 8004300:	2205      	movs	r2, #5
 8004302:	f814 1b01 	ldrb.w	r1, [r4], #1
 8004306:	4853      	ldr	r0, [pc, #332]	@ (8004454 <_vfiprintf_r+0x21c>)
 8004308:	f7fb ff82 	bl	8000210 <memchr>
 800430c:	9a04      	ldr	r2, [sp, #16]
 800430e:	b9d8      	cbnz	r0, 8004348 <_vfiprintf_r+0x110>
 8004310:	06d1      	lsls	r1, r2, #27
 8004312:	bf44      	itt	mi
 8004314:	2320      	movmi	r3, #32
 8004316:	f88d 3053 	strbmi.w	r3, [sp, #83]	@ 0x53
 800431a:	0713      	lsls	r3, r2, #28
 800431c:	bf44      	itt	mi
 800431e:	232b      	movmi	r3, #43	@ 0x2b
 8004320:	f88d 3053 	strbmi.w	r3, [sp, #83]	@ 0x53
 8004324:	f89a 3000 	ldrb.w	r3, [sl]
 8004328:	2b2a      	cmp	r3, #42	@ 0x2a
 800432a:	d015      	beq.n	8004358 <_vfiprintf_r+0x120>
 800432c:	9a07      	ldr	r2, [sp, #28]
 800432e:	4654      	mov	r4, sl
 8004330:	2000      	movs	r0, #0
 8004332:	f04f 0c0a 	mov.w	ip, #10
 8004336:	4621      	mov	r1, r4
 8004338:	f811 3b01 	ldrb.w	r3, [r1], #1
 800433c:	3b30      	subs	r3, #48	@ 0x30
 800433e:	2b09      	cmp	r3, #9
 8004340:	d94b      	bls.n	80043da <_vfiprintf_r+0x1a2>
 8004342:	b1b0      	cbz	r0, 8004372 <_vfiprintf_r+0x13a>
 8004344:	9207      	str	r2, [sp, #28]
 8004346:	e014      	b.n	8004372 <_vfiprintf_r+0x13a>
 8004348:	eba0 0308 	sub.w	r3, r0, r8
 800434c:	fa09 f303 	lsl.w	r3, r9, r3
 8004350:	4313      	orrs	r3, r2
 8004352:	9304      	str	r3, [sp, #16]
 8004354:	46a2      	mov	sl, r4
 8004356:	e7d2      	b.n	80042fe <_vfiprintf_r+0xc6>
 8004358:	9b03      	ldr	r3, [sp, #12]
 800435a:	1d19      	adds	r1, r3, #4
 800435c:	681b      	ldr	r3, [r3, #0]
 800435e:	9103      	str	r1, [sp, #12]
 8004360:	2b00      	cmp	r3, #0
 8004362:	bfbb      	ittet	lt
 8004364:	425b      	neglt	r3, r3
 8004366:	f042 0202 	orrlt.w	r2, r2, #2
 800436a:	9307      	strge	r3, [sp, #28]
 800436c:	9307      	strlt	r3, [sp, #28]
 800436e:	bfb8      	it	lt
 8004370:	9204      	strlt	r2, [sp, #16]
 8004372:	7823      	ldrb	r3, [r4, #0]
 8004374:	2b2e      	cmp	r3, #46	@ 0x2e
 8004376:	d10a      	bne.n	800438e <_vfiprintf_r+0x156>
 8004378:	7863      	ldrb	r3, [r4, #1]
 800437a:	2b2a      	cmp	r3, #42	@ 0x2a
 800437c:	d132      	bne.n	80043e4 <_vfiprintf_r+0x1ac>
 800437e:	9b03      	ldr	r3, [sp, #12]
 8004380:	1d1a      	adds	r2, r3, #4
 8004382:	681b      	ldr	r3, [r3, #0]
 8004384:	9203      	str	r2, [sp, #12]
 8004386:	ea43 73e3 	orr.w	r3, r3, r3, asr #31
 800438a:	3402      	adds	r4, #2
 800438c:	9305      	str	r3, [sp, #20]
 800438e:	f8df a0d4 	ldr.w	sl, [pc, #212]	@ 8004464 <_vfiprintf_r+0x22c>
 8004392:	7821      	ldrb	r1, [r4, #0]
 8004394:	2203      	movs	r2, #3
 8004396:	4650      	mov	r0, sl
 8004398:	f7fb ff3a 	bl	8000210 <memchr>
 800439c:	b138      	cbz	r0, 80043ae <_vfiprintf_r+0x176>
 800439e:	9b04      	ldr	r3, [sp, #16]
 80043a0:	eba0 000a 	sub.w	r0, r0, sl
 80043a4:	2240      	movs	r2, #64	@ 0x40
 80043a6:	4082      	lsls	r2, r0
 80043a8:	4313      	orrs	r3, r2
 80043aa:	3401      	adds	r4, #1
 80043ac:	9304      	str	r3, [sp, #16]
 80043ae:	f814 1b01 	ldrb.w	r1, [r4], #1
 80043b2:	4829      	ldr	r0, [pc, #164]	@ (8004458 <_vfiprintf_r+0x220>)
 80043b4:	f88d 1028 	strb.w	r1, [sp, #40]	@ 0x28
 80043b8:	2206      	movs	r2, #6
 80043ba:	f7fb ff29 	bl	8000210 <memchr>
 80043be:	2800      	cmp	r0, #0
 80043c0:	d03f      	beq.n	8004442 <_vfiprintf_r+0x20a>
 80043c2:	4b26      	ldr	r3, [pc, #152]	@ (800445c <_vfiprintf_r+0x224>)
 80043c4:	bb1b      	cbnz	r3, 800440e <_vfiprintf_r+0x1d6>
 80043c6:	9b03      	ldr	r3, [sp, #12]
 80043c8:	3307      	adds	r3, #7
 80043ca:	f023 0307 	bic.w	r3, r3, #7
 80043ce:	3308      	adds	r3, #8
 80043d0:	9303      	str	r3, [sp, #12]
 80043d2:	9b09      	ldr	r3, [sp, #36]	@ 0x24
 80043d4:	443b      	add	r3, r7
 80043d6:	9309      	str	r3, [sp, #36]	@ 0x24
 80043d8:	e76a      	b.n	80042b0 <_vfiprintf_r+0x78>
 80043da:	fb0c 3202 	mla	r2, ip, r2, r3
 80043de:	460c      	mov	r4, r1
 80043e0:	2001      	movs	r0, #1
 80043e2:	e7a8      	b.n	8004336 <_vfiprintf_r+0xfe>
 80043e4:	2300      	movs	r3, #0
 80043e6:	3401      	adds	r4, #1
 80043e8:	9305      	str	r3, [sp, #20]
 80043ea:	4619      	mov	r1, r3
 80043ec:	f04f 0c0a 	mov.w	ip, #10
 80043f0:	4620      	mov	r0, r4
 80043f2:	f810 2b01 	ldrb.w	r2, [r0], #1
 80043f6:	3a30      	subs	r2, #48	@ 0x30
 80043f8:	2a09      	cmp	r2, #9
 80043fa:	d903      	bls.n	8004404 <_vfiprintf_r+0x1cc>
 80043fc:	2b00      	cmp	r3, #0
 80043fe:	d0c6      	beq.n	800438e <_vfiprintf_r+0x156>
 8004400:	9105      	str	r1, [sp, #20]
 8004402:	e7c4      	b.n	800438e <_vfiprintf_r+0x156>
 8004404:	fb0c 2101 	mla	r1, ip, r1, r2
 8004408:	4604      	mov	r4, r0
 800440a:	2301      	movs	r3, #1
 800440c:	e7f0      	b.n	80043f0 <_vfiprintf_r+0x1b8>
 800440e:	ab03      	add	r3, sp, #12
 8004410:	9300      	str	r3, [sp, #0]
 8004412:	462a      	mov	r2, r5
 8004414:	4b12      	ldr	r3, [pc, #72]	@ (8004460 <_vfiprintf_r+0x228>)
 8004416:	a904      	add	r1, sp, #16
 8004418:	4630      	mov	r0, r6
 800441a:	f3af 8000 	nop.w
 800441e:	4607      	mov	r7, r0
 8004420:	1c78      	adds	r0, r7, #1
 8004422:	d1d6      	bne.n	80043d2 <_vfiprintf_r+0x19a>
 8004424:	6e6b      	ldr	r3, [r5, #100]	@ 0x64
 8004426:	07d9      	lsls	r1, r3, #31
 8004428:	d405      	bmi.n	8004436 <_vfiprintf_r+0x1fe>
 800442a:	89ab      	ldrh	r3, [r5, #12]
 800442c:	059a      	lsls	r2, r3, #22
 800442e:	d402      	bmi.n	8004436 <_vfiprintf_r+0x1fe>
 8004430:	6da8      	ldr	r0, [r5, #88]	@ 0x58
 8004432:	f7ff fc85 	bl	8003d40 <__retarget_lock_release_recursive>
 8004436:	89ab      	ldrh	r3, [r5, #12]
 8004438:	065b      	lsls	r3, r3, #25
 800443a:	f53f af1f 	bmi.w	800427c <_vfiprintf_r+0x44>
 800443e:	9809      	ldr	r0, [sp, #36]	@ 0x24
 8004440:	e71e      	b.n	8004280 <_vfiprintf_r+0x48>
 8004442:	ab03      	add	r3, sp, #12
 8004444:	9300      	str	r3, [sp, #0]
 8004446:	462a      	mov	r2, r5
 8004448:	4b05      	ldr	r3, [pc, #20]	@ (8004460 <_vfiprintf_r+0x228>)
 800444a:	a904      	add	r1, sp, #16
 800444c:	4630      	mov	r0, r6
 800444e:	f000 f879 	bl	8004544 <_printf_i>
 8004452:	e7e4      	b.n	800441e <_vfiprintf_r+0x1e6>
 8004454:	08004d08 	.word	0x08004d08
 8004458:	08004d12 	.word	0x08004d12
 800445c:	00000000 	.word	0x00000000
 8004460:	08004213 	.word	0x08004213
 8004464:	08004d0e 	.word	0x08004d0e

08004468 <_printf_common>:
 8004468:	e92d 47f0 	stmdb	sp!, {r4, r5, r6, r7, r8, r9, sl, lr}
 800446c:	4616      	mov	r6, r2
 800446e:	4698      	mov	r8, r3
 8004470:	688a      	ldr	r2, [r1, #8]
 8004472:	690b      	ldr	r3, [r1, #16]
 8004474:	f8dd 9020 	ldr.w	r9, [sp, #32]
 8004478:	4293      	cmp	r3, r2
 800447a:	bfb8      	it	lt
 800447c:	4613      	movlt	r3, r2
 800447e:	6033      	str	r3, [r6, #0]
 8004480:	f891 2043 	ldrb.w	r2, [r1, #67]	@ 0x43
 8004484:	4607      	mov	r7, r0
 8004486:	460c      	mov	r4, r1
 8004488:	b10a      	cbz	r2, 800448e <_printf_common+0x26>
 800448a:	3301      	adds	r3, #1
 800448c:	6033      	str	r3, [r6, #0]
 800448e:	6823      	ldr	r3, [r4, #0]
 8004490:	0699      	lsls	r1, r3, #26
 8004492:	bf42      	ittt	mi
 8004494:	6833      	ldrmi	r3, [r6, #0]
 8004496:	3302      	addmi	r3, #2
 8004498:	6033      	strmi	r3, [r6, #0]
 800449a:	6825      	ldr	r5, [r4, #0]
 800449c:	f015 0506 	ands.w	r5, r5, #6
 80044a0:	d106      	bne.n	80044b0 <_printf_common+0x48>
 80044a2:	f104 0a19 	add.w	sl, r4, #25
 80044a6:	68e3      	ldr	r3, [r4, #12]
 80044a8:	6832      	ldr	r2, [r6, #0]
 80044aa:	1a9b      	subs	r3, r3, r2
 80044ac:	42ab      	cmp	r3, r5
 80044ae:	dc26      	bgt.n	80044fe <_printf_common+0x96>
 80044b0:	f894 3043 	ldrb.w	r3, [r4, #67]	@ 0x43
 80044b4:	6822      	ldr	r2, [r4, #0]
 80044b6:	3b00      	subs	r3, #0
 80044b8:	bf18      	it	ne
 80044ba:	2301      	movne	r3, #1
 80044bc:	0692      	lsls	r2, r2, #26
 80044be:	d42b      	bmi.n	8004518 <_printf_common+0xb0>
 80044c0:	f104 0243 	add.w	r2, r4, #67	@ 0x43
 80044c4:	4641      	mov	r1, r8
 80044c6:	4638      	mov	r0, r7
 80044c8:	47c8      	blx	r9
 80044ca:	3001      	adds	r0, #1
 80044cc:	d01e      	beq.n	800450c <_printf_common+0xa4>
 80044ce:	6823      	ldr	r3, [r4, #0]
 80044d0:	6922      	ldr	r2, [r4, #16]
 80044d2:	f003 0306 	and.w	r3, r3, #6
 80044d6:	2b04      	cmp	r3, #4
 80044d8:	bf02      	ittt	eq
 80044da:	68e5      	ldreq	r5, [r4, #12]
 80044dc:	6833      	ldreq	r3, [r6, #0]
 80044de:	1aed      	subeq	r5, r5, r3
 80044e0:	68a3      	ldr	r3, [r4, #8]
 80044e2:	bf0c      	ite	eq
 80044e4:	ea25 75e5 	biceq.w	r5, r5, r5, asr #31
 80044e8:	2500      	movne	r5, #0
 80044ea:	4293      	cmp	r3, r2
 80044ec:	bfc4      	itt	gt
 80044ee:	1a9b      	subgt	r3, r3, r2
 80044f0:	18ed      	addgt	r5, r5, r3
 80044f2:	2600      	movs	r6, #0
 80044f4:	341a      	adds	r4, #26
 80044f6:	42b5      	cmp	r5, r6
 80044f8:	d11a      	bne.n	8004530 <_printf_common+0xc8>
 80044fa:	2000      	movs	r0, #0
 80044fc:	e008      	b.n	8004510 <_printf_common+0xa8>
 80044fe:	2301      	movs	r3, #1
 8004500:	4652      	mov	r2, sl
 8004502:	4641      	mov	r1, r8
 8004504:	4638      	mov	r0, r7
 8004506:	47c8      	blx	r9
 8004508:	3001      	adds	r0, #1
 800450a:	d103      	bne.n	8004514 <_printf_common+0xac>
 800450c:	f04f 30ff 	mov.w	r0, #4294967295	@ 0xffffffff
 8004510:	e8bd 87f0 	ldmia.w	sp!, {r4, r5, r6, r7, r8, r9, sl, pc}
 8004514:	3501      	adds	r5, #1
 8004516:	e7c6      	b.n	80044a6 <_printf_common+0x3e>
 8004518:	18e1      	adds	r1, r4, r3
 800451a:	1c5a      	adds	r2, r3, #1
 800451c:	2030      	movs	r0, #48	@ 0x30
 800451e:	f881 0043 	strb.w	r0, [r1, #67]	@ 0x43
 8004522:	4422      	add	r2, r4
 8004524:	f894 1045 	ldrb.w	r1, [r4, #69]	@ 0x45
 8004528:	f882 1043 	strb.w	r1, [r2, #67]	@ 0x43
 800452c:	3302      	adds	r3, #2
 800452e:	e7c7      	b.n	80044c0 <_printf_common+0x58>
 8004530:	2301      	movs	r3, #1
 8004532:	4622      	mov	r2, r4
 8004534:	4641      	mov	r1, r8
 8004536:	4638      	mov	r0, r7
 8004538:	47c8      	blx	r9
 800453a:	3001      	adds	r0, #1
 800453c:	d0e6      	beq.n	800450c <_printf_common+0xa4>
 800453e:	3601      	adds	r6, #1
 8004540:	e7d9      	b.n	80044f6 <_printf_common+0x8e>
	...

08004544 <_printf_i>:
 8004544:	e92d 47ff 	stmdb	sp!, {r0, r1, r2, r3, r4, r5, r6, r7, r8, r9, sl, lr}
 8004548:	7e0f      	ldrb	r7, [r1, #24]
 800454a:	9e0c      	ldr	r6, [sp, #48]	@ 0x30
 800454c:	2f78      	cmp	r7, #120	@ 0x78
 800454e:	4691      	mov	r9, r2
 8004550:	4680      	mov	r8, r0
 8004552:	460c      	mov	r4, r1
 8004554:	469a      	mov	sl, r3
 8004556:	f101 0243 	add.w	r2, r1, #67	@ 0x43
 800455a:	d807      	bhi.n	800456c <_printf_i+0x28>
 800455c:	2f62      	cmp	r7, #98	@ 0x62
 800455e:	d80a      	bhi.n	8004576 <_printf_i+0x32>
 8004560:	2f00      	cmp	r7, #0
 8004562:	f000 80d2 	beq.w	800470a <_printf_i+0x1c6>
 8004566:	2f58      	cmp	r7, #88	@ 0x58
 8004568:	f000 80b9 	beq.w	80046de <_printf_i+0x19a>
 800456c:	f104 0642 	add.w	r6, r4, #66	@ 0x42
 8004570:	f884 7042 	strb.w	r7, [r4, #66]	@ 0x42
 8004574:	e03a      	b.n	80045ec <_printf_i+0xa8>
 8004576:	f1a7 0363 	sub.w	r3, r7, #99	@ 0x63
 800457a:	2b15      	cmp	r3, #21
 800457c:	d8f6      	bhi.n	800456c <_printf_i+0x28>
 800457e:	a101      	add	r1, pc, #4	@ (adr r1, 8004584 <_printf_i+0x40>)
 8004580:	f851 f023 	ldr.w	pc, [r1, r3, lsl #2]
 8004584:	080045dd 	.word	0x080045dd
 8004588:	080045f1 	.word	0x080045f1
 800458c:	0800456d 	.word	0x0800456d
 8004590:	0800456d 	.word	0x0800456d
 8004594:	0800456d 	.word	0x0800456d
 8004598:	0800456d 	.word	0x0800456d
 800459c:	080045f1 	.word	0x080045f1
 80045a0:	0800456d 	.word	0x0800456d
 80045a4:	0800456d 	.word	0x0800456d
 80045a8:	0800456d 	.word	0x0800456d
 80045ac:	0800456d 	.word	0x0800456d
 80045b0:	080046f1 	.word	0x080046f1
 80045b4:	0800461b 	.word	0x0800461b
 80045b8:	080046ab 	.word	0x080046ab
 80045bc:	0800456d 	.word	0x0800456d
 80045c0:	0800456d 	.word	0x0800456d
 80045c4:	08004713 	.word	0x08004713
 80045c8:	0800456d 	.word	0x0800456d
 80045cc:	0800461b 	.word	0x0800461b
 80045d0:	0800456d 	.word	0x0800456d
 80045d4:	0800456d 	.word	0x0800456d
 80045d8:	080046b3 	.word	0x080046b3
 80045dc:	6833      	ldr	r3, [r6, #0]
 80045de:	1d1a      	adds	r2, r3, #4
 80045e0:	681b      	ldr	r3, [r3, #0]
 80045e2:	6032      	str	r2, [r6, #0]
 80045e4:	f104 0642 	add.w	r6, r4, #66	@ 0x42
 80045e8:	f884 3042 	strb.w	r3, [r4, #66]	@ 0x42
 80045ec:	2301      	movs	r3, #1
 80045ee:	e09d      	b.n	800472c <_printf_i+0x1e8>
 80045f0:	6833      	ldr	r3, [r6, #0]
 80045f2:	6820      	ldr	r0, [r4, #0]
 80045f4:	1d19      	adds	r1, r3, #4
 80045f6:	6031      	str	r1, [r6, #0]
 80045f8:	0606      	lsls	r6, r0, #24
 80045fa:	d501      	bpl.n	8004600 <_printf_i+0xbc>
 80045fc:	681d      	ldr	r5, [r3, #0]
 80045fe:	e003      	b.n	8004608 <_printf_i+0xc4>
 8004600:	0645      	lsls	r5, r0, #25
 8004602:	d5fb      	bpl.n	80045fc <_printf_i+0xb8>
 8004604:	f9b3 5000 	ldrsh.w	r5, [r3]
 8004608:	2d00      	cmp	r5, #0
 800460a:	da03      	bge.n	8004614 <_printf_i+0xd0>
 800460c:	232d      	movs	r3, #45	@ 0x2d
 800460e:	426d      	negs	r5, r5
 8004610:	f884 3043 	strb.w	r3, [r4, #67]	@ 0x43
 8004614:	4859      	ldr	r0, [pc, #356]	@ (800477c <_printf_i+0x238>)
 8004616:	230a      	movs	r3, #10
 8004618:	e011      	b.n	800463e <_printf_i+0xfa>
 800461a:	6821      	ldr	r1, [r4, #0]
 800461c:	6833      	ldr	r3, [r6, #0]
 800461e:	0608      	lsls	r0, r1, #24
 8004620:	f853 5b04 	ldr.w	r5, [r3], #4
 8004624:	d402      	bmi.n	800462c <_printf_i+0xe8>
 8004626:	0649      	lsls	r1, r1, #25
 8004628:	bf48      	it	mi
 800462a:	b2ad      	uxthmi	r5, r5
 800462c:	2f6f      	cmp	r7, #111	@ 0x6f
 800462e:	4853      	ldr	r0, [pc, #332]	@ (800477c <_printf_i+0x238>)
 8004630:	6033      	str	r3, [r6, #0]
 8004632:	bf14      	ite	ne
 8004634:	230a      	movne	r3, #10
 8004636:	2308      	moveq	r3, #8
 8004638:	2100      	movs	r1, #0
 800463a:	f884 1043 	strb.w	r1, [r4, #67]	@ 0x43
 800463e:	6866      	ldr	r6, [r4, #4]
 8004640:	60a6      	str	r6, [r4, #8]
 8004642:	2e00      	cmp	r6, #0
 8004644:	bfa2      	ittt	ge
 8004646:	6821      	ldrge	r1, [r4, #0]
 8004648:	f021 0104 	bicge.w	r1, r1, #4
 800464c:	6021      	strge	r1, [r4, #0]
 800464e:	b90d      	cbnz	r5, 8004654 <_printf_i+0x110>
 8004650:	2e00      	cmp	r6, #0
 8004652:	d04b      	beq.n	80046ec <_printf_i+0x1a8>
 8004654:	4616      	mov	r6, r2
 8004656:	fbb5 f1f3 	udiv	r1, r5, r3
 800465a:	fb03 5711 	mls	r7, r3, r1, r5
 800465e:	5dc7      	ldrb	r7, [r0, r7]
 8004660:	f806 7d01 	strb.w	r7, [r6, #-1]!
 8004664:	462f      	mov	r7, r5
 8004666:	42bb      	cmp	r3, r7
 8004668:	460d      	mov	r5, r1
 800466a:	d9f4      	bls.n	8004656 <_printf_i+0x112>
 800466c:	2b08      	cmp	r3, #8
 800466e:	d10b      	bne.n	8004688 <_printf_i+0x144>
 8004670:	6823      	ldr	r3, [r4, #0]
 8004672:	07df      	lsls	r7, r3, #31
 8004674:	d508      	bpl.n	8004688 <_printf_i+0x144>
 8004676:	6923      	ldr	r3, [r4, #16]
 8004678:	6861      	ldr	r1, [r4, #4]
 800467a:	4299      	cmp	r1, r3
 800467c:	bfde      	ittt	le
 800467e:	2330      	movle	r3, #48	@ 0x30
 8004680:	f806 3c01 	strble.w	r3, [r6, #-1]
 8004684:	f106 36ff 	addle.w	r6, r6, #4294967295	@ 0xffffffff
 8004688:	1b92      	subs	r2, r2, r6
 800468a:	6122      	str	r2, [r4, #16]
 800468c:	f8cd a000 	str.w	sl, [sp]
 8004690:	464b      	mov	r3, r9
 8004692:	aa03      	add	r2, sp, #12
 8004694:	4621      	mov	r1, r4
 8004696:	4640      	mov	r0, r8
 8004698:	f7ff fee6 	bl	8004468 <_printf_common>
 800469c:	3001      	adds	r0, #1
 800469e:	d14a      	bne.n	8004736 <_printf_i+0x1f2>
 80046a0:	f04f 30ff 	mov.w	r0, #4294967295	@ 0xffffffff
 80046a4:	b004      	add	sp, #16
 80046a6:	e8bd 87f0 	ldmia.w	sp!, {r4, r5, r6, r7, r8, r9, sl, pc}
 80046aa:	6823      	ldr	r3, [r4, #0]
 80046ac:	f043 0320 	orr.w	r3, r3, #32
 80046b0:	6023      	str	r3, [r4, #0]
 80046b2:	4833      	ldr	r0, [pc, #204]	@ (8004780 <_printf_i+0x23c>)
 80046b4:	2778      	movs	r7, #120	@ 0x78
 80046b6:	f884 7045 	strb.w	r7, [r4, #69]	@ 0x45
 80046ba:	6823      	ldr	r3, [r4, #0]
 80046bc:	6831      	ldr	r1, [r6, #0]
 80046be:	061f      	lsls	r7, r3, #24
 80046c0:	f851 5b04 	ldr.w	r5, [r1], #4
 80046c4:	d402      	bmi.n	80046cc <_printf_i+0x188>
 80046c6:	065f      	lsls	r7, r3, #25
 80046c8:	bf48      	it	mi
 80046ca:	b2ad      	uxthmi	r5, r5
 80046cc:	6031      	str	r1, [r6, #0]
 80046ce:	07d9      	lsls	r1, r3, #31
 80046d0:	bf44      	itt	mi
 80046d2:	f043 0320 	orrmi.w	r3, r3, #32
 80046d6:	6023      	strmi	r3, [r4, #0]
 80046d8:	b11d      	cbz	r5, 80046e2 <_printf_i+0x19e>
 80046da:	2310      	movs	r3, #16
 80046dc:	e7ac      	b.n	8004638 <_printf_i+0xf4>
 80046de:	4827      	ldr	r0, [pc, #156]	@ (800477c <_printf_i+0x238>)
 80046e0:	e7e9      	b.n	80046b6 <_printf_i+0x172>
 80046e2:	6823      	ldr	r3, [r4, #0]
 80046e4:	f023 0320 	bic.w	r3, r3, #32
 80046e8:	6023      	str	r3, [r4, #0]
 80046ea:	e7f6      	b.n	80046da <_printf_i+0x196>
 80046ec:	4616      	mov	r6, r2
 80046ee:	e7bd      	b.n	800466c <_printf_i+0x128>
 80046f0:	6833      	ldr	r3, [r6, #0]
 80046f2:	6825      	ldr	r5, [r4, #0]
 80046f4:	6961      	ldr	r1, [r4, #20]
 80046f6:	1d18      	adds	r0, r3, #4
 80046f8:	6030      	str	r0, [r6, #0]
 80046fa:	062e      	lsls	r6, r5, #24
 80046fc:	681b      	ldr	r3, [r3, #0]
 80046fe:	d501      	bpl.n	8004704 <_printf_i+0x1c0>
 8004700:	6019      	str	r1, [r3, #0]
 8004702:	e002      	b.n	800470a <_printf_i+0x1c6>
 8004704:	0668      	lsls	r0, r5, #25
 8004706:	d5fb      	bpl.n	8004700 <_printf_i+0x1bc>
 8004708:	8019      	strh	r1, [r3, #0]
 800470a:	2300      	movs	r3, #0
 800470c:	6123      	str	r3, [r4, #16]
 800470e:	4616      	mov	r6, r2
 8004710:	e7bc      	b.n	800468c <_printf_i+0x148>
 8004712:	6833      	ldr	r3, [r6, #0]
 8004714:	1d1a      	adds	r2, r3, #4
 8004716:	6032      	str	r2, [r6, #0]
 8004718:	681e      	ldr	r6, [r3, #0]
 800471a:	6862      	ldr	r2, [r4, #4]
 800471c:	2100      	movs	r1, #0
 800471e:	4630      	mov	r0, r6
 8004720:	f7fb fd76 	bl	8000210 <memchr>
 8004724:	b108      	cbz	r0, 800472a <_printf_i+0x1e6>
 8004726:	1b80      	subs	r0, r0, r6
 8004728:	6060      	str	r0, [r4, #4]
 800472a:	6863      	ldr	r3, [r4, #4]
 800472c:	6123      	str	r3, [r4, #16]
 800472e:	2300      	movs	r3, #0
 8004730:	f884 3043 	strb.w	r3, [r4, #67]	@ 0x43
 8004734:	e7aa      	b.n	800468c <_printf_i+0x148>
 8004736:	6923      	ldr	r3, [r4, #16]
 8004738:	4632      	mov	r2, r6
 800473a:	4649      	mov	r1, r9
 800473c:	4640      	mov	r0, r8
 800473e:	47d0      	blx	sl
 8004740:	3001      	adds	r0, #1
 8004742:	d0ad      	beq.n	80046a0 <_printf_i+0x15c>
 8004744:	6823      	ldr	r3, [r4, #0]
 8004746:	079b      	lsls	r3, r3, #30
 8004748:	d413      	bmi.n	8004772 <_printf_i+0x22e>
 800474a:	68e0      	ldr	r0, [r4, #12]
 800474c:	9b03      	ldr	r3, [sp, #12]
 800474e:	4298      	cmp	r0, r3
 8004750:	bfb8      	it	lt
 8004752:	4618      	movlt	r0, r3
 8004754:	e7a6      	b.n	80046a4 <_printf_i+0x160>
 8004756:	2301      	movs	r3, #1
 8004758:	4632      	mov	r2, r6
 800475a:	4649      	mov	r1, r9
 800475c:	4640      	mov	r0, r8
 800475e:	47d0      	blx	sl
 8004760:	3001      	adds	r0, #1
 8004762:	d09d      	beq.n	80046a0 <_printf_i+0x15c>
 8004764:	3501      	adds	r5, #1
 8004766:	68e3      	ldr	r3, [r4, #12]
 8004768:	9903      	ldr	r1, [sp, #12]
 800476a:	1a5b      	subs	r3, r3, r1
 800476c:	42ab      	cmp	r3, r5
 800476e:	dcf2      	bgt.n	8004756 <_printf_i+0x212>
 8004770:	e7eb      	b.n	800474a <_printf_i+0x206>
 8004772:	2500      	movs	r5, #0
 8004774:	f104 0619 	add.w	r6, r4, #25
 8004778:	e7f5      	b.n	8004766 <_printf_i+0x222>
 800477a:	bf00      	nop
 800477c:	08004d19 	.word	0x08004d19
 8004780:	08004d2a 	.word	0x08004d2a

08004784 <__sflush_r>:
 8004784:	f9b1 200c 	ldrsh.w	r2, [r1, #12]
 8004788:	e92d 41f0 	stmdb	sp!, {r4, r5, r6, r7, r8, lr}
 800478c:	0716      	lsls	r6, r2, #28
 800478e:	4605      	mov	r5, r0
 8004790:	460c      	mov	r4, r1
 8004792:	d454      	bmi.n	800483e <__sflush_r+0xba>
 8004794:	684b      	ldr	r3, [r1, #4]
 8004796:	2b00      	cmp	r3, #0
 8004798:	dc02      	bgt.n	80047a0 <__sflush_r+0x1c>
 800479a:	6c0b      	ldr	r3, [r1, #64]	@ 0x40
 800479c:	2b00      	cmp	r3, #0
 800479e:	dd48      	ble.n	8004832 <__sflush_r+0xae>
 80047a0:	6ae6      	ldr	r6, [r4, #44]	@ 0x2c
 80047a2:	2e00      	cmp	r6, #0
 80047a4:	d045      	beq.n	8004832 <__sflush_r+0xae>
 80047a6:	2300      	movs	r3, #0
 80047a8:	f412 5280 	ands.w	r2, r2, #4096	@ 0x1000
 80047ac:	682f      	ldr	r7, [r5, #0]
 80047ae:	6a21      	ldr	r1, [r4, #32]
 80047b0:	602b      	str	r3, [r5, #0]
 80047b2:	d030      	beq.n	8004816 <__sflush_r+0x92>
 80047b4:	6d62      	ldr	r2, [r4, #84]	@ 0x54
 80047b6:	89a3      	ldrh	r3, [r4, #12]
 80047b8:	0759      	lsls	r1, r3, #29
 80047ba:	d505      	bpl.n	80047c8 <__sflush_r+0x44>
 80047bc:	6863      	ldr	r3, [r4, #4]
 80047be:	1ad2      	subs	r2, r2, r3
 80047c0:	6b63      	ldr	r3, [r4, #52]	@ 0x34
 80047c2:	b10b      	cbz	r3, 80047c8 <__sflush_r+0x44>
 80047c4:	6c23      	ldr	r3, [r4, #64]	@ 0x40
 80047c6:	1ad2      	subs	r2, r2, r3
 80047c8:	2300      	movs	r3, #0
 80047ca:	6ae6      	ldr	r6, [r4, #44]	@ 0x2c
 80047cc:	6a21      	ldr	r1, [r4, #32]
 80047ce:	4628      	mov	r0, r5
 80047d0:	47b0      	blx	r6
 80047d2:	1c43      	adds	r3, r0, #1
 80047d4:	89a3      	ldrh	r3, [r4, #12]
 80047d6:	d106      	bne.n	80047e6 <__sflush_r+0x62>
 80047d8:	6829      	ldr	r1, [r5, #0]
 80047da:	291d      	cmp	r1, #29
 80047dc:	d82b      	bhi.n	8004836 <__sflush_r+0xb2>
 80047de:	4a2a      	ldr	r2, [pc, #168]	@ (8004888 <__sflush_r+0x104>)
 80047e0:	410a      	asrs	r2, r1
 80047e2:	07d6      	lsls	r6, r2, #31
 80047e4:	d427      	bmi.n	8004836 <__sflush_r+0xb2>
 80047e6:	2200      	movs	r2, #0
 80047e8:	6062      	str	r2, [r4, #4]
 80047ea:	04d9      	lsls	r1, r3, #19
 80047ec:	6922      	ldr	r2, [r4, #16]
 80047ee:	6022      	str	r2, [r4, #0]
 80047f0:	d504      	bpl.n	80047fc <__sflush_r+0x78>
 80047f2:	1c42      	adds	r2, r0, #1
 80047f4:	d101      	bne.n	80047fa <__sflush_r+0x76>
 80047f6:	682b      	ldr	r3, [r5, #0]
 80047f8:	b903      	cbnz	r3, 80047fc <__sflush_r+0x78>
 80047fa:	6560      	str	r0, [r4, #84]	@ 0x54
 80047fc:	6b61      	ldr	r1, [r4, #52]	@ 0x34
 80047fe:	602f      	str	r7, [r5, #0]
 8004800:	b1b9      	cbz	r1, 8004832 <__sflush_r+0xae>
 8004802:	f104 0344 	add.w	r3, r4, #68	@ 0x44
 8004806:	4299      	cmp	r1, r3
 8004808:	d002      	beq.n	8004810 <__sflush_r+0x8c>
 800480a:	4628      	mov	r0, r5
 800480c:	f7ff fa9a 	bl	8003d44 <_free_r>
 8004810:	2300      	movs	r3, #0
 8004812:	6363      	str	r3, [r4, #52]	@ 0x34
 8004814:	e00d      	b.n	8004832 <__sflush_r+0xae>
 8004816:	2301      	movs	r3, #1
 8004818:	4628      	mov	r0, r5
 800481a:	47b0      	blx	r6
 800481c:	4602      	mov	r2, r0
 800481e:	1c50      	adds	r0, r2, #1
 8004820:	d1c9      	bne.n	80047b6 <__sflush_r+0x32>
 8004822:	682b      	ldr	r3, [r5, #0]
 8004824:	2b00      	cmp	r3, #0
 8004826:	d0c6      	beq.n	80047b6 <__sflush_r+0x32>
 8004828:	2b1d      	cmp	r3, #29
 800482a:	d001      	beq.n	8004830 <__sflush_r+0xac>
 800482c:	2b16      	cmp	r3, #22
 800482e:	d11e      	bne.n	800486e <__sflush_r+0xea>
 8004830:	602f      	str	r7, [r5, #0]
 8004832:	2000      	movs	r0, #0
 8004834:	e022      	b.n	800487c <__sflush_r+0xf8>
 8004836:	f043 0340 	orr.w	r3, r3, #64	@ 0x40
 800483a:	b21b      	sxth	r3, r3
 800483c:	e01b      	b.n	8004876 <__sflush_r+0xf2>
 800483e:	690f      	ldr	r7, [r1, #16]
 8004840:	2f00      	cmp	r7, #0
 8004842:	d0f6      	beq.n	8004832 <__sflush_r+0xae>
 8004844:	0793      	lsls	r3, r2, #30
 8004846:	680e      	ldr	r6, [r1, #0]
 8004848:	bf08      	it	eq
 800484a:	694b      	ldreq	r3, [r1, #20]
 800484c:	600f      	str	r7, [r1, #0]
 800484e:	bf18      	it	ne
 8004850:	2300      	movne	r3, #0
 8004852:	eba6 0807 	sub.w	r8, r6, r7
 8004856:	608b      	str	r3, [r1, #8]
 8004858:	f1b8 0f00 	cmp.w	r8, #0
 800485c:	dde9      	ble.n	8004832 <__sflush_r+0xae>
 800485e:	6a21      	ldr	r1, [r4, #32]
 8004860:	6aa6      	ldr	r6, [r4, #40]	@ 0x28
 8004862:	4643      	mov	r3, r8
 8004864:	463a      	mov	r2, r7
 8004866:	4628      	mov	r0, r5
 8004868:	47b0      	blx	r6
 800486a:	2800      	cmp	r0, #0
 800486c:	dc08      	bgt.n	8004880 <__sflush_r+0xfc>
 800486e:	f9b4 300c 	ldrsh.w	r3, [r4, #12]
 8004872:	f043 0340 	orr.w	r3, r3, #64	@ 0x40
 8004876:	81a3      	strh	r3, [r4, #12]
 8004878:	f04f 30ff 	mov.w	r0, #4294967295	@ 0xffffffff
 800487c:	e8bd 81f0 	ldmia.w	sp!, {r4, r5, r6, r7, r8, pc}
 8004880:	4407      	add	r7, r0
 8004882:	eba8 0800 	sub.w	r8, r8, r0
 8004886:	e7e7      	b.n	8004858 <__sflush_r+0xd4>
 8004888:	dfbffffe 	.word	0xdfbffffe

0800488c <_fflush_r>:
 800488c:	b538      	push	{r3, r4, r5, lr}
 800488e:	690b      	ldr	r3, [r1, #16]
 8004890:	4605      	mov	r5, r0
 8004892:	460c      	mov	r4, r1
 8004894:	b913      	cbnz	r3, 800489c <_fflush_r+0x10>
 8004896:	2500      	movs	r5, #0
 8004898:	4628      	mov	r0, r5
 800489a:	bd38      	pop	{r3, r4, r5, pc}
 800489c:	b118      	cbz	r0, 80048a6 <_fflush_r+0x1a>
 800489e:	6a03      	ldr	r3, [r0, #32]
 80048a0:	b90b      	cbnz	r3, 80048a6 <_fflush_r+0x1a>
 80048a2:	f7ff f91f 	bl	8003ae4 <__sinit>
 80048a6:	f9b4 300c 	ldrsh.w	r3, [r4, #12]
 80048aa:	2b00      	cmp	r3, #0
 80048ac:	d0f3      	beq.n	8004896 <_fflush_r+0xa>
 80048ae:	6e62      	ldr	r2, [r4, #100]	@ 0x64
 80048b0:	07d0      	lsls	r0, r2, #31
 80048b2:	d404      	bmi.n	80048be <_fflush_r+0x32>
 80048b4:	0599      	lsls	r1, r3, #22
 80048b6:	d402      	bmi.n	80048be <_fflush_r+0x32>
 80048b8:	6da0      	ldr	r0, [r4, #88]	@ 0x58
 80048ba:	f7ff fa40 	bl	8003d3e <__retarget_lock_acquire_recursive>
 80048be:	4628      	mov	r0, r5
 80048c0:	4621      	mov	r1, r4
 80048c2:	f7ff ff5f 	bl	8004784 <__sflush_r>
 80048c6:	6e63      	ldr	r3, [r4, #100]	@ 0x64
 80048c8:	07da      	lsls	r2, r3, #31
 80048ca:	4605      	mov	r5, r0
 80048cc:	d4e4      	bmi.n	8004898 <_fflush_r+0xc>
 80048ce:	89a3      	ldrh	r3, [r4, #12]
 80048d0:	059b      	lsls	r3, r3, #22
 80048d2:	d4e1      	bmi.n	8004898 <_fflush_r+0xc>
 80048d4:	6da0      	ldr	r0, [r4, #88]	@ 0x58
 80048d6:	f7ff fa33 	bl	8003d40 <__retarget_lock_release_recursive>
 80048da:	e7dd      	b.n	8004898 <_fflush_r+0xc>

080048dc <_putc_r>:
 80048dc:	b570      	push	{r4, r5, r6, lr}
 80048de:	460d      	mov	r5, r1
 80048e0:	4614      	mov	r4, r2
 80048e2:	4606      	mov	r6, r0
 80048e4:	b118      	cbz	r0, 80048ee <_putc_r+0x12>
 80048e6:	6a03      	ldr	r3, [r0, #32]
 80048e8:	b90b      	cbnz	r3, 80048ee <_putc_r+0x12>
 80048ea:	f7ff f8fb 	bl	8003ae4 <__sinit>
 80048ee:	6e63      	ldr	r3, [r4, #100]	@ 0x64
 80048f0:	07d8      	lsls	r0, r3, #31
 80048f2:	d405      	bmi.n	8004900 <_putc_r+0x24>
 80048f4:	89a3      	ldrh	r3, [r4, #12]
 80048f6:	0599      	lsls	r1, r3, #22
 80048f8:	d402      	bmi.n	8004900 <_putc_r+0x24>
 80048fa:	6da0      	ldr	r0, [r4, #88]	@ 0x58
 80048fc:	f7ff fa1f 	bl	8003d3e <__retarget_lock_acquire_recursive>
 8004900:	68a3      	ldr	r3, [r4, #8]
 8004902:	3b01      	subs	r3, #1
 8004904:	2b00      	cmp	r3, #0
 8004906:	60a3      	str	r3, [r4, #8]
 8004908:	da05      	bge.n	8004916 <_putc_r+0x3a>
 800490a:	69a2      	ldr	r2, [r4, #24]
 800490c:	4293      	cmp	r3, r2
 800490e:	db12      	blt.n	8004936 <_putc_r+0x5a>
 8004910:	b2eb      	uxtb	r3, r5
 8004912:	2b0a      	cmp	r3, #10
 8004914:	d00f      	beq.n	8004936 <_putc_r+0x5a>
 8004916:	6823      	ldr	r3, [r4, #0]
 8004918:	1c5a      	adds	r2, r3, #1
 800491a:	6022      	str	r2, [r4, #0]
 800491c:	701d      	strb	r5, [r3, #0]
 800491e:	b2ed      	uxtb	r5, r5
 8004920:	6e63      	ldr	r3, [r4, #100]	@ 0x64
 8004922:	07da      	lsls	r2, r3, #31
 8004924:	d405      	bmi.n	8004932 <_putc_r+0x56>
 8004926:	89a3      	ldrh	r3, [r4, #12]
 8004928:	059b      	lsls	r3, r3, #22
 800492a:	d402      	bmi.n	8004932 <_putc_r+0x56>
 800492c:	6da0      	ldr	r0, [r4, #88]	@ 0x58
 800492e:	f7ff fa07 	bl	8003d40 <__retarget_lock_release_recursive>
 8004932:	4628      	mov	r0, r5
 8004934:	bd70      	pop	{r4, r5, r6, pc}
 8004936:	4629      	mov	r1, r5
 8004938:	4622      	mov	r2, r4
 800493a:	4630      	mov	r0, r6
 800493c:	f000 f802 	bl	8004944 <__swbuf_r>
 8004940:	4605      	mov	r5, r0
 8004942:	e7ed      	b.n	8004920 <_putc_r+0x44>

08004944 <__swbuf_r>:
 8004944:	b5f8      	push	{r3, r4, r5, r6, r7, lr}
 8004946:	460e      	mov	r6, r1
 8004948:	4614      	mov	r4, r2
 800494a:	4605      	mov	r5, r0
 800494c:	b118      	cbz	r0, 8004956 <__swbuf_r+0x12>
 800494e:	6a03      	ldr	r3, [r0, #32]
 8004950:	b90b      	cbnz	r3, 8004956 <__swbuf_r+0x12>
 8004952:	f7ff f8c7 	bl	8003ae4 <__sinit>
 8004956:	69a3      	ldr	r3, [r4, #24]
 8004958:	60a3      	str	r3, [r4, #8]
 800495a:	89a3      	ldrh	r3, [r4, #12]
 800495c:	071a      	lsls	r2, r3, #28
 800495e:	d501      	bpl.n	8004964 <__swbuf_r+0x20>
 8004960:	6923      	ldr	r3, [r4, #16]
 8004962:	b943      	cbnz	r3, 8004976 <__swbuf_r+0x32>
 8004964:	4621      	mov	r1, r4
 8004966:	4628      	mov	r0, r5
 8004968:	f000 f82a 	bl	80049c0 <__swsetup_r>
 800496c:	b118      	cbz	r0, 8004976 <__swbuf_r+0x32>
 800496e:	f04f 37ff 	mov.w	r7, #4294967295	@ 0xffffffff
 8004972:	4638      	mov	r0, r7
 8004974:	bdf8      	pop	{r3, r4, r5, r6, r7, pc}
 8004976:	6823      	ldr	r3, [r4, #0]
 8004978:	6922      	ldr	r2, [r4, #16]
 800497a:	1a98      	subs	r0, r3, r2
 800497c:	6963      	ldr	r3, [r4, #20]
 800497e:	b2f6      	uxtb	r6, r6
 8004980:	4283      	cmp	r3, r0
 8004982:	4637      	mov	r7, r6
 8004984:	dc05      	bgt.n	8004992 <__swbuf_r+0x4e>
 8004986:	4621      	mov	r1, r4
 8004988:	4628      	mov	r0, r5
 800498a:	f7ff ff7f 	bl	800488c <_fflush_r>
 800498e:	2800      	cmp	r0, #0
 8004990:	d1ed      	bne.n	800496e <__swbuf_r+0x2a>
 8004992:	68a3      	ldr	r3, [r4, #8]
 8004994:	3b01      	subs	r3, #1
 8004996:	60a3      	str	r3, [r4, #8]
 8004998:	6823      	ldr	r3, [r4, #0]
 800499a:	1c5a      	adds	r2, r3, #1
 800499c:	6022      	str	r2, [r4, #0]
 800499e:	701e      	strb	r6, [r3, #0]
 80049a0:	6962      	ldr	r2, [r4, #20]
 80049a2:	1c43      	adds	r3, r0, #1
 80049a4:	429a      	cmp	r2, r3
 80049a6:	d004      	beq.n	80049b2 <__swbuf_r+0x6e>
 80049a8:	89a3      	ldrh	r3, [r4, #12]
 80049aa:	07db      	lsls	r3, r3, #31
 80049ac:	d5e1      	bpl.n	8004972 <__swbuf_r+0x2e>
 80049ae:	2e0a      	cmp	r6, #10
 80049b0:	d1df      	bne.n	8004972 <__swbuf_r+0x2e>
 80049b2:	4621      	mov	r1, r4
 80049b4:	4628      	mov	r0, r5
 80049b6:	f7ff ff69 	bl	800488c <_fflush_r>
 80049ba:	2800      	cmp	r0, #0
 80049bc:	d0d9      	beq.n	8004972 <__swbuf_r+0x2e>
 80049be:	e7d6      	b.n	800496e <__swbuf_r+0x2a>

080049c0 <__swsetup_r>:
 80049c0:	b538      	push	{r3, r4, r5, lr}
 80049c2:	4b29      	ldr	r3, [pc, #164]	@ (8004a68 <__swsetup_r+0xa8>)
 80049c4:	4605      	mov	r5, r0
 80049c6:	6818      	ldr	r0, [r3, #0]
 80049c8:	460c      	mov	r4, r1
 80049ca:	b118      	cbz	r0, 80049d4 <__swsetup_r+0x14>
 80049cc:	6a03      	ldr	r3, [r0, #32]
 80049ce:	b90b      	cbnz	r3, 80049d4 <__swsetup_r+0x14>
 80049d0:	f7ff f888 	bl	8003ae4 <__sinit>
 80049d4:	f9b4 300c 	ldrsh.w	r3, [r4, #12]
 80049d8:	0719      	lsls	r1, r3, #28
 80049da:	d422      	bmi.n	8004a22 <__swsetup_r+0x62>
 80049dc:	06da      	lsls	r2, r3, #27
 80049de:	d407      	bmi.n	80049f0 <__swsetup_r+0x30>
 80049e0:	2209      	movs	r2, #9
 80049e2:	602a      	str	r2, [r5, #0]
 80049e4:	f043 0340 	orr.w	r3, r3, #64	@ 0x40
 80049e8:	81a3      	strh	r3, [r4, #12]
 80049ea:	f04f 30ff 	mov.w	r0, #4294967295	@ 0xffffffff
 80049ee:	e033      	b.n	8004a58 <__swsetup_r+0x98>
 80049f0:	0758      	lsls	r0, r3, #29
 80049f2:	d512      	bpl.n	8004a1a <__swsetup_r+0x5a>
 80049f4:	6b61      	ldr	r1, [r4, #52]	@ 0x34
 80049f6:	b141      	cbz	r1, 8004a0a <__swsetup_r+0x4a>
 80049f8:	f104 0344 	add.w	r3, r4, #68	@ 0x44
 80049fc:	4299      	cmp	r1, r3
 80049fe:	d002      	beq.n	8004a06 <__swsetup_r+0x46>
 8004a00:	4628      	mov	r0, r5
 8004a02:	f7ff f99f 	bl	8003d44 <_free_r>
 8004a06:	2300      	movs	r3, #0
 8004a08:	6363      	str	r3, [r4, #52]	@ 0x34
 8004a0a:	89a3      	ldrh	r3, [r4, #12]
 8004a0c:	f023 0324 	bic.w	r3, r3, #36	@ 0x24
 8004a10:	81a3      	strh	r3, [r4, #12]
 8004a12:	2300      	movs	r3, #0
 8004a14:	6063      	str	r3, [r4, #4]
 8004a16:	6923      	ldr	r3, [r4, #16]
 8004a18:	6023      	str	r3, [r4, #0]
 8004a1a:	89a3      	ldrh	r3, [r4, #12]
 8004a1c:	f043 0308 	orr.w	r3, r3, #8
 8004a20:	81a3      	strh	r3, [r4, #12]
 8004a22:	6923      	ldr	r3, [r4, #16]
 8004a24:	b94b      	cbnz	r3, 8004a3a <__swsetup_r+0x7a>
 8004a26:	89a3      	ldrh	r3, [r4, #12]
 8004a28:	f403 7320 	and.w	r3, r3, #640	@ 0x280
 8004a2c:	f5b3 7f00 	cmp.w	r3, #512	@ 0x200
 8004a30:	d003      	beq.n	8004a3a <__swsetup_r+0x7a>
 8004a32:	4621      	mov	r1, r4
 8004a34:	4628      	mov	r0, r5
 8004a36:	f000 f8a5 	bl	8004b84 <__smakebuf_r>
 8004a3a:	f9b4 300c 	ldrsh.w	r3, [r4, #12]
 8004a3e:	f013 0201 	ands.w	r2, r3, #1
 8004a42:	d00a      	beq.n	8004a5a <__swsetup_r+0x9a>
 8004a44:	2200      	movs	r2, #0
 8004a46:	60a2      	str	r2, [r4, #8]
 8004a48:	6962      	ldr	r2, [r4, #20]
 8004a4a:	4252      	negs	r2, r2
 8004a4c:	61a2      	str	r2, [r4, #24]
 8004a4e:	6922      	ldr	r2, [r4, #16]
 8004a50:	b942      	cbnz	r2, 8004a64 <__swsetup_r+0xa4>
 8004a52:	f013 0080 	ands.w	r0, r3, #128	@ 0x80
 8004a56:	d1c5      	bne.n	80049e4 <__swsetup_r+0x24>
 8004a58:	bd38      	pop	{r3, r4, r5, pc}
 8004a5a:	0799      	lsls	r1, r3, #30
 8004a5c:	bf58      	it	pl
 8004a5e:	6962      	ldrpl	r2, [r4, #20]
 8004a60:	60a2      	str	r2, [r4, #8]
 8004a62:	e7f4      	b.n	8004a4e <__swsetup_r+0x8e>
 8004a64:	2000      	movs	r0, #0
 8004a66:	e7f7      	b.n	8004a58 <__swsetup_r+0x98>
 8004a68:	20000038 	.word	0x20000038

08004a6c <memmove>:
 8004a6c:	4288      	cmp	r0, r1
 8004a6e:	b510      	push	{r4, lr}
 8004a70:	eb01 0402 	add.w	r4, r1, r2
 8004a74:	d902      	bls.n	8004a7c <memmove+0x10>
 8004a76:	4284      	cmp	r4, r0
 8004a78:	4623      	mov	r3, r4
 8004a7a:	d807      	bhi.n	8004a8c <memmove+0x20>
 8004a7c:	1e43      	subs	r3, r0, #1
 8004a7e:	42a1      	cmp	r1, r4
 8004a80:	d008      	beq.n	8004a94 <memmove+0x28>
 8004a82:	f811 2b01 	ldrb.w	r2, [r1], #1
 8004a86:	f803 2f01 	strb.w	r2, [r3, #1]!
 8004a8a:	e7f8      	b.n	8004a7e <memmove+0x12>
 8004a8c:	4402      	add	r2, r0
 8004a8e:	4601      	mov	r1, r0
 8004a90:	428a      	cmp	r2, r1
 8004a92:	d100      	bne.n	8004a96 <memmove+0x2a>
 8004a94:	bd10      	pop	{r4, pc}
 8004a96:	f813 4d01 	ldrb.w	r4, [r3, #-1]!
 8004a9a:	f802 4d01 	strb.w	r4, [r2, #-1]!
 8004a9e:	e7f7      	b.n	8004a90 <memmove+0x24>

08004aa0 <_sbrk_r>:
 8004aa0:	b538      	push	{r3, r4, r5, lr}
 8004aa2:	4d06      	ldr	r5, [pc, #24]	@ (8004abc <_sbrk_r+0x1c>)
 8004aa4:	2300      	movs	r3, #0
 8004aa6:	4604      	mov	r4, r0
 8004aa8:	4608      	mov	r0, r1
 8004aaa:	602b      	str	r3, [r5, #0]
 8004aac:	f7fd f9ec 	bl	8001e88 <_sbrk>
 8004ab0:	1c43      	adds	r3, r0, #1
 8004ab2:	d102      	bne.n	8004aba <_sbrk_r+0x1a>
 8004ab4:	682b      	ldr	r3, [r5, #0]
 8004ab6:	b103      	cbz	r3, 8004aba <_sbrk_r+0x1a>
 8004ab8:	6023      	str	r3, [r4, #0]
 8004aba:	bd38      	pop	{r3, r4, r5, pc}
 8004abc:	20001e08 	.word	0x20001e08

08004ac0 <memcpy>:
 8004ac0:	440a      	add	r2, r1
 8004ac2:	4291      	cmp	r1, r2
 8004ac4:	f100 33ff 	add.w	r3, r0, #4294967295	@ 0xffffffff
 8004ac8:	d100      	bne.n	8004acc <memcpy+0xc>
 8004aca:	4770      	bx	lr
 8004acc:	b510      	push	{r4, lr}
 8004ace:	f811 4b01 	ldrb.w	r4, [r1], #1
 8004ad2:	f803 4f01 	strb.w	r4, [r3, #1]!
 8004ad6:	4291      	cmp	r1, r2
 8004ad8:	d1f9      	bne.n	8004ace <memcpy+0xe>
 8004ada:	bd10      	pop	{r4, pc}

08004adc <_realloc_r>:
 8004adc:	e92d 41f0 	stmdb	sp!, {r4, r5, r6, r7, r8, lr}
 8004ae0:	4680      	mov	r8, r0
 8004ae2:	4615      	mov	r5, r2
 8004ae4:	460c      	mov	r4, r1
 8004ae6:	b921      	cbnz	r1, 8004af2 <_realloc_r+0x16>
 8004ae8:	e8bd 41f0 	ldmia.w	sp!, {r4, r5, r6, r7, r8, lr}
 8004aec:	4611      	mov	r1, r2
 8004aee:	f7ff b995 	b.w	8003e1c <_malloc_r>
 8004af2:	b92a      	cbnz	r2, 8004b00 <_realloc_r+0x24>
 8004af4:	f7ff f926 	bl	8003d44 <_free_r>
 8004af8:	2400      	movs	r4, #0
 8004afa:	4620      	mov	r0, r4
 8004afc:	e8bd 81f0 	ldmia.w	sp!, {r4, r5, r6, r7, r8, pc}
 8004b00:	f000 f89e 	bl	8004c40 <_malloc_usable_size_r>
 8004b04:	4285      	cmp	r5, r0
 8004b06:	4606      	mov	r6, r0
 8004b08:	d802      	bhi.n	8004b10 <_realloc_r+0x34>
 8004b0a:	ebb5 0f50 	cmp.w	r5, r0, lsr #1
 8004b0e:	d8f4      	bhi.n	8004afa <_realloc_r+0x1e>
 8004b10:	4629      	mov	r1, r5
 8004b12:	4640      	mov	r0, r8
 8004b14:	f7ff f982 	bl	8003e1c <_malloc_r>
 8004b18:	4607      	mov	r7, r0
 8004b1a:	2800      	cmp	r0, #0
 8004b1c:	d0ec      	beq.n	8004af8 <_realloc_r+0x1c>
 8004b1e:	42b5      	cmp	r5, r6
 8004b20:	462a      	mov	r2, r5
 8004b22:	4621      	mov	r1, r4
 8004b24:	bf28      	it	cs
 8004b26:	4632      	movcs	r2, r6
 8004b28:	f7ff ffca 	bl	8004ac0 <memcpy>
 8004b2c:	4621      	mov	r1, r4
 8004b2e:	4640      	mov	r0, r8
 8004b30:	f7ff f908 	bl	8003d44 <_free_r>
 8004b34:	463c      	mov	r4, r7
 8004b36:	e7e0      	b.n	8004afa <_realloc_r+0x1e>

08004b38 <__swhatbuf_r>:
 8004b38:	b570      	push	{r4, r5, r6, lr}
 8004b3a:	460c      	mov	r4, r1
 8004b3c:	f9b1 100e 	ldrsh.w	r1, [r1, #14]
 8004b40:	2900      	cmp	r1, #0
 8004b42:	b096      	sub	sp, #88	@ 0x58
 8004b44:	4615      	mov	r5, r2
 8004b46:	461e      	mov	r6, r3
 8004b48:	da0d      	bge.n	8004b66 <__swhatbuf_r+0x2e>
 8004b4a:	89a3      	ldrh	r3, [r4, #12]
 8004b4c:	f013 0f80 	tst.w	r3, #128	@ 0x80
 8004b50:	f04f 0100 	mov.w	r1, #0
 8004b54:	bf14      	ite	ne
 8004b56:	2340      	movne	r3, #64	@ 0x40
 8004b58:	f44f 6380 	moveq.w	r3, #1024	@ 0x400
 8004b5c:	2000      	movs	r0, #0
 8004b5e:	6031      	str	r1, [r6, #0]
 8004b60:	602b      	str	r3, [r5, #0]
 8004b62:	b016      	add	sp, #88	@ 0x58
 8004b64:	bd70      	pop	{r4, r5, r6, pc}
 8004b66:	466a      	mov	r2, sp
 8004b68:	f000 f848 	bl	8004bfc <_fstat_r>
 8004b6c:	2800      	cmp	r0, #0
 8004b6e:	dbec      	blt.n	8004b4a <__swhatbuf_r+0x12>
 8004b70:	9901      	ldr	r1, [sp, #4]
 8004b72:	f401 4170 	and.w	r1, r1, #61440	@ 0xf000
 8004b76:	f5a1 5300 	sub.w	r3, r1, #8192	@ 0x2000
 8004b7a:	4259      	negs	r1, r3
 8004b7c:	4159      	adcs	r1, r3
 8004b7e:	f44f 6380 	mov.w	r3, #1024	@ 0x400
 8004b82:	e7eb      	b.n	8004b5c <__swhatbuf_r+0x24>

08004b84 <__smakebuf_r>:
 8004b84:	898b      	ldrh	r3, [r1, #12]
 8004b86:	b5f7      	push	{r0, r1, r2, r4, r5, r6, r7, lr}
 8004b88:	079d      	lsls	r5, r3, #30
 8004b8a:	4606      	mov	r6, r0
 8004b8c:	460c      	mov	r4, r1
 8004b8e:	d507      	bpl.n	8004ba0 <__smakebuf_r+0x1c>
 8004b90:	f104 0347 	add.w	r3, r4, #71	@ 0x47
 8004b94:	6023      	str	r3, [r4, #0]
 8004b96:	6123      	str	r3, [r4, #16]
 8004b98:	2301      	movs	r3, #1
 8004b9a:	6163      	str	r3, [r4, #20]
 8004b9c:	b003      	add	sp, #12
 8004b9e:	bdf0      	pop	{r4, r5, r6, r7, pc}
 8004ba0:	ab01      	add	r3, sp, #4
 8004ba2:	466a      	mov	r2, sp
 8004ba4:	f7ff ffc8 	bl	8004b38 <__swhatbuf_r>
 8004ba8:	9f00      	ldr	r7, [sp, #0]
 8004baa:	4605      	mov	r5, r0
 8004bac:	4639      	mov	r1, r7
 8004bae:	4630      	mov	r0, r6
 8004bb0:	f7ff f934 	bl	8003e1c <_malloc_r>
 8004bb4:	b948      	cbnz	r0, 8004bca <__smakebuf_r+0x46>
 8004bb6:	f9b4 300c 	ldrsh.w	r3, [r4, #12]
 8004bba:	059a      	lsls	r2, r3, #22
 8004bbc:	d4ee      	bmi.n	8004b9c <__smakebuf_r+0x18>
 8004bbe:	f023 0303 	bic.w	r3, r3, #3
 8004bc2:	f043 0302 	orr.w	r3, r3, #2
 8004bc6:	81a3      	strh	r3, [r4, #12]
 8004bc8:	e7e2      	b.n	8004b90 <__smakebuf_r+0xc>
 8004bca:	89a3      	ldrh	r3, [r4, #12]
 8004bcc:	6020      	str	r0, [r4, #0]
 8004bce:	f043 0380 	orr.w	r3, r3, #128	@ 0x80
 8004bd2:	81a3      	strh	r3, [r4, #12]
 8004bd4:	9b01      	ldr	r3, [sp, #4]
 8004bd6:	e9c4 0704 	strd	r0, r7, [r4, #16]
 8004bda:	b15b      	cbz	r3, 8004bf4 <__smakebuf_r+0x70>
 8004bdc:	f9b4 100e 	ldrsh.w	r1, [r4, #14]
 8004be0:	4630      	mov	r0, r6
 8004be2:	f000 f81d 	bl	8004c20 <_isatty_r>
 8004be6:	b128      	cbz	r0, 8004bf4 <__smakebuf_r+0x70>
 8004be8:	89a3      	ldrh	r3, [r4, #12]
 8004bea:	f023 0303 	bic.w	r3, r3, #3
 8004bee:	f043 0301 	orr.w	r3, r3, #1
 8004bf2:	81a3      	strh	r3, [r4, #12]
 8004bf4:	89a3      	ldrh	r3, [r4, #12]
 8004bf6:	431d      	orrs	r5, r3
 8004bf8:	81a5      	strh	r5, [r4, #12]
 8004bfa:	e7cf      	b.n	8004b9c <__smakebuf_r+0x18>

08004bfc <_fstat_r>:
 8004bfc:	b538      	push	{r3, r4, r5, lr}
 8004bfe:	4d07      	ldr	r5, [pc, #28]	@ (8004c1c <_fstat_r+0x20>)
 8004c00:	2300      	movs	r3, #0
 8004c02:	4604      	mov	r4, r0
 8004c04:	4608      	mov	r0, r1
 8004c06:	4611      	mov	r1, r2
 8004c08:	602b      	str	r3, [r5, #0]
 8004c0a:	f7fd f934 	bl	8001e76 <_fstat>
 8004c0e:	1c43      	adds	r3, r0, #1
 8004c10:	d102      	bne.n	8004c18 <_fstat_r+0x1c>
 8004c12:	682b      	ldr	r3, [r5, #0]
 8004c14:	b103      	cbz	r3, 8004c18 <_fstat_r+0x1c>
 8004c16:	6023      	str	r3, [r4, #0]
 8004c18:	bd38      	pop	{r3, r4, r5, pc}
 8004c1a:	bf00      	nop
 8004c1c:	20001e08 	.word	0x20001e08

08004c20 <_isatty_r>:
 8004c20:	b538      	push	{r3, r4, r5, lr}
 8004c22:	4d06      	ldr	r5, [pc, #24]	@ (8004c3c <_isatty_r+0x1c>)
 8004c24:	2300      	movs	r3, #0
 8004c26:	4604      	mov	r4, r0
 8004c28:	4608      	mov	r0, r1
 8004c2a:	602b      	str	r3, [r5, #0]
 8004c2c:	f7fd f928 	bl	8001e80 <_isatty>
 8004c30:	1c43      	adds	r3, r0, #1
 8004c32:	d102      	bne.n	8004c3a <_isatty_r+0x1a>
 8004c34:	682b      	ldr	r3, [r5, #0]
 8004c36:	b103      	cbz	r3, 8004c3a <_isatty_r+0x1a>
 8004c38:	6023      	str	r3, [r4, #0]
 8004c3a:	bd38      	pop	{r3, r4, r5, pc}
 8004c3c:	20001e08 	.word	0x20001e08

08004c40 <_malloc_usable_size_r>:
 8004c40:	f851 3c04 	ldr.w	r3, [r1, #-4]
 8004c44:	1f18      	subs	r0, r3, #4
 8004c46:	2b00      	cmp	r3, #0
 8004c48:	bfbc      	itt	lt
 8004c4a:	580b      	ldrlt	r3, [r1, r0]
 8004c4c:	18c0      	addlt	r0, r0, r3
 8004c4e:	4770      	bx	lr

08004c50 <_init>:
 8004c50:	b5f8      	push	{r3, r4, r5, r6, r7, lr}
 8004c52:	bf00      	nop
 8004c54:	bcf8      	pop	{r3, r4, r5, r6, r7}
 8004c56:	bc08      	pop	{r3}
 8004c58:	469e      	mov	lr, r3
 8004c5a:	4770      	bx	lr

08004c5c <_fini>:
 8004c5c:	b5f8      	push	{r3, r4, r5, r6, r7, lr}
 8004c5e:	bf00      	nop
 8004c60:	bcf8      	pop	{r3, r4, r5, r6, r7}
 8004c62:	bc08      	pop	{r3}
 8004c64:	469e      	mov	lr, r3
 8004c66:	4770      	bx	lr
